(dp0
S'900'
p1
(dp2
S'cprime1.0'
p3
(dp4
S'brnew0.8'
p5
(dp6
S'weight'
p7
F0.3826820493667917
ssS'brnew0.9'
p8
(dp9
g7
F0.22311822591925265
ssS'brnew0.0'
p10
(dp11
g7
F0.9165618778632707
ssS'brnew0.1'
p12
(dp13
g7
F0.8859167192842848
ssS'brnew0.2'
p14
(dp15
g7
F0.8493456119574657
ssS'brnew0.3'
p16
(dp17
g7
F0.8053218175375274
ssS'brnew0.4'
p18
(dp19
g7
F0.7518805671528327
ssS'brnew0.5'
p20
(dp21
g7
F0.6865465377921293
ssS'brnew0.6'
p22
(dp23
g7
F0.6061712225729959
ssS'brnew0.7'
p24
(dp25
g7
F0.5067744823118008
sssS'cprime0.7'
p26
(dp27
S'brnew0.8'
p28
(dp29
g7
F0.6133834880272261
ssS'brnew0.9'
p30
(dp31
g7
F0.3883361492620589
ssS'brnew0.0'
p32
(dp33
g7
F1.067433199101227
ssS'brnew0.1'
p34
(dp35
g7
F1.051097920568117
ssS'brnew0.2'
p36
(dp37
g7
F1.0305317940249088
ssS'brnew0.3'
p38
(dp39
g7
F1.0041845667274423
ssS'brnew0.4'
p40
(dp41
g7
F0.9694273659985259
ssS'brnew0.5'
p42
(dp43
g7
F0.9221943861481294
ssS'brnew0.6'
p44
(dp45
g7
F0.8557785889687856
ssS'brnew0.7'
p46
(dp47
g7
F0.7590126470444023
sssS'cprime0.6'
p48
(dp49
S'brnew0.8'
p50
(dp51
g7
F0.7244766660824554
ssS'brnew0.9'
p52
(dp53
g7
F0.4815877258519766
ssS'brnew0.0'
p54
(dp55
g7
F1.1058215294012077
ssS'brnew0.1'
p56
(dp57
g7
F1.0941404603130105
ssS'brnew0.2'
p58
(dp59
g7
F1.0793873162919043
ssS'brnew0.3'
p60
(dp61
g7
F1.060162930688008
ssS'brnew0.4'
p62
(dp63
g7
F1.0343227824745467
ssS'brnew0.5'
p64
(dp65
g7
F0.998191798089023
ssS'brnew0.6'
p66
(dp67
g7
F0.9450569303338586
ssS'brnew0.7'
p68
(dp69
g7
F0.8622858381469969
sssS'cprime0.5'
p70
(dp71
S'brnew0.8'
p72
(dp73
g7
F0.8493456119574657
ssS'brnew0.9'
p74
(dp75
g7
F0.6061712225729959
ssS'brnew0.0'
p76
(dp77
g7
F1.136854849694689
ssS'brnew0.1'
p78
(dp79
g7
F1.129177127348007
ssS'brnew0.2'
p80
(dp81
g7
F1.1194092968324125
ssS'brnew0.3'
p82
(dp83
g7
F1.1066472731534114
ssS'brnew0.4'
p84
(dp85
g7
F1.089246210505726
ssS'brnew0.5'
p86
(dp87
g7
F1.0644559356706427
ssS'brnew0.6'
p88
(dp89
g7
F1.0267522114536052
ssS'brnew0.7'
p90
(dp91
g7
F0.9645046469088222
sssS'cprime0.4'
p92
(dp93
S'brnew0.8'
p94
(dp95
g7
F0.9743446980756271
ssS'brnew0.9'
p96
(dp97
g7
F0.7662517729970123
ssS'brnew0.0'
p98
(dp99
g7
F1.1608120928683061
ssS'brnew0.1'
p100
(dp101
g7
F1.156196334852327
ssS'brnew0.2'
p102
(dp103
g7
F1.1503279142743608
ssS'brnew0.3'
p104
(dp105
g7
F1.14269596226742
ssS'brnew0.4'
p106
(dp107
g7
F1.1322630235262134
ssS'brnew0.5'
p108
(dp109
g7
F1.1172928132883306
ssS'brnew0.6'
p110
(dp111
g7
F1.0941404603130105
ssS'brnew0.7'
p112
(dp113
g7
F1.0544304374220212
sssS'cprime0.3'
p114
(dp115
S'brnew0.8'
p116
(dp117
g7
F1.0793873162919043
ssS'brnew0.9'
p118
(dp119
g7
F0.9450569303338586
ssS'brnew0.0'
p120
(dp121
g7
F1.1785771071340285
ssS'brnew0.1'
p122
(dp123
g7
F1.1760479950178242
ssS'brnew0.2'
p124
(dp125
g7
F1.1729112044151584
ssS'brnew0.3'
p126
(dp127
g7
F1.1688459537537608
ssS'brnew0.4'
p128
(dp129
g7
F1.163385799836651
ssS'brnew0.5'
p130
(dp131
g7
F1.1556182461555806
ssS'brnew0.6'
p132
(dp133
g7
F1.143652187668859
ssS'brnew0.7'
p134
(dp135
g7
F1.1229548765410384
sssS'cprime0.2'
p136
(dp137
S'brnew0.8'
p138
(dp139
g7
F1.1503279142743608
ssS'brnew0.9'
p140
(dp141
g7
F1.0941404603130105
ssS'brnew0.0'
p142
(dp143
g7
F1.1920020776102118
ssS'brnew0.1'
p144
(dp145
g7
F1.1906358150727483
ssS'brnew0.2'
p146
(dp147
g7
F1.1890171568251655
ssS'brnew0.3'
p148
(dp149
g7
F1.18703994170815
ssS'brnew0.4'
p150
(dp151
g7
F1.1845186790796771
ssS'brnew0.5'
p152
(dp153
g7
F1.1810941098684218
ssS'brnew0.6'
p154
(dp155
g7
F1.1760479950178242
ssS'brnew0.7'
p156
(dp157
g7
F1.167642644918918
sssS'cprime0.1'
p158
(dp159
S'brnew0.8'
p160
(dp161
g7
F1.1890171568251655
ssS'brnew0.9'
p162
(dp163
g7
F1.1760479950178242
ssS'brnew0.0'
p164
(dp165
g7
F1.206031992207349
ssS'brnew0.1'
p166
(dp167
g7
F1.205178884936732
ssS'brnew0.2'
p168
(dp169
g7
F1.2041814222878642
ssS'brnew0.3'
p170
(dp171
g7
F1.2029959690967031
ssS'brnew0.4'
p172
(dp173
g7
F1.2015712816905528
ssS'brnew0.5'
p174
(dp175
g7
F1.1997941053882981
ssS'brnew0.6'
p176
(dp177
g7
F1.1974699523510186
ssS'brnew0.7'
p178
(dp179
g7
F1.1942285127397503
sssS'cprime0.9'
p180
(dp181
S'brnew0.8'
p182
(dp183
g7
F0.4444618666914882
ssS'brnew0.9'
p184
(dp185
g7
F0.26474786181812465
ssS'brnew0.0'
p186
(dp187
g7
F0.9714002976571245
ssS'brnew0.1'
p188
(dp189
g7
F0.9450569303338586
ssS'brnew0.2'
p190
(dp191
g7
F0.9130569951489033
ssS'brnew0.3'
p192
(dp193
g7
F0.8735738186184392
ssS'brnew0.4'
p194
(dp195
g7
F0.8242768694810981
ssS'brnew0.5'
p196
(dp197
g7
F0.7618968159483842
ssS'brnew0.6'
p198
(dp199
g7
F0.68205537025582
ssS'brnew0.7'
p200
(dp201
g7
F0.5789166054065258
sssS'cprime0.8'
p202
(dp203
S'brnew0.8'
p204
(dp205
g7
F0.5204091373177183
ssS'brnew0.9'
p206
(dp207
g7
F0.3182682719935176
ssS'brnew0.0'
p208
(dp209
g7
F1.022248191444463
ssS'brnew0.1'
p210
(dp211
g7
F1.0009107319029593
ssS'brnew0.2'
p212
(dp213
g7
F0.9743446980756271
ssS'brnew0.3'
p214
(dp215
g7
F0.940945464187581
ssS'brnew0.4'
p216
(dp217
g7
F0.8980278371027982
ssS'brnew0.5'
p218
(dp219
g7
F0.8417206895661072
ssS'brnew0.6'
p220
(dp221
g7
F0.7662517729970123
ssS'brnew0.7'
p222
(dp223
g7
F0.6632079699617096
ssssS'750'
p224
(dp225
S'cprime1.0'
p226
(dp227
S'brnew0.8'
p228
(dp229
S'weight'
p230
F0.4789454873506592
ssS'brnew0.9'
p231
(dp232
g230
F0.3052340240121015
ssS'brnew0.0'
p233
(dp234
g230
F0.955195659564751
ssS'brnew0.1'
p235
(dp236
g230
F0.9312320267140634
ssS'brnew0.2'
p237
(dp238
g230
F0.902330766059027
ssS'brnew0.3'
p239
(dp240
g230
F0.8669712122680269
ssS'brnew0.4'
p241
(dp242
g230
F0.8230318350418591
ssS'brnew0.5'
p243
(dp244
g230
F0.7675284028708478
ssS'brnew0.6'
p245
(dp246
g230
F0.6962298938006037
ssS'brnew0.7'
p247
(dp248
g230
F0.6030901176401334
sssS'cprime0.7'
p249
(dp250
S'brnew0.8'
p251
(dp252
g230
F0.7027698423928168
ssS'brnew0.9'
p253
(dp254
g230
F0.4847932943451366
ssS'brnew0.0'
p255
(dp256
g230
F1.072781456512326
ssS'brnew0.1'
p257
(dp258
g230
F1.0598081741443695
ssS'brnew0.2'
p259
(dp260
g230
F1.0436784248260516
ssS'brnew0.3'
p261
(dp262
g230
F1.023155346582094
ssS'brnew0.4'
p263
(dp264
g230
F0.9962325900074882
ssS'brnew0.5'
p265
(dp266
g230
F0.9595717281848927
ssS'brnew0.6'
p267
(dp268
g230
F0.9074404060090614
ssS'brnew0.7'
p269
(dp270
g230
F0.8289634010180312
sssS'cprime0.6'
p271
(dp272
S'brnew0.8'
p273
(dp274
g230
F0.8000087444572643
ssS'brnew0.9'
p275
(dp276
g230
F0.5786013040809288
ssS'brnew0.0'
p277
(dp278
g230
F1.1038080810811155
ssS'brnew0.1'
p279
(dp280
g230
F1.09427039677398
ssS'brnew0.2'
p281
(dp282
g230
F1.082322102192436
ssS'brnew0.3'
p283
(dp284
g230
F1.066984271561098
ssS'brnew0.4'
p285
(dp286
g230
F1.0466336034387587
ssS'brnew0.5'
p287
(dp288
g230
F1.0184716088589278
ssS'brnew0.6'
p289
(dp290
g230
F0.977358872826249
ssS'brnew0.7'
p291
(dp292
g230
F0.9125927181999985
sssS'cprime0.5'
p293
(dp294
S'brnew0.8'
p295
(dp296
g230
F0.902330766059027
ssS'brnew0.9'
p297
(dp298
g230
F0.6962298938006037
ssS'brnew0.0'
p299
(dp300
g230
F1.1299533338639247
ssS'brnew0.1'
p301
(dp302
g230
F1.1233761579830885
ssS'brnew0.2'
p303
(dp304
g230
F1.1151317964179321
ssS'brnew0.3'
p305
(dp306
g230
F1.1045016225673912
ssS'brnew0.4'
p307
(dp308
g230
F1.0902909970973982
ssS'brnew0.5'
p309
(dp310
g230
F1.0703975930597878
ssS'brnew0.6'
p311
(dp312
g230
F1.0407450226021346
ssS'brnew0.7'
p313
(dp314
g230
F0.9924312928677594
sssS'cprime0.4'
p315
(dp316
S'brnew0.8'
p317
(dp318
g230
F0.9999907762168007
ssS'brnew0.9'
p319
(dp320
g230
F0.8349605463118039
ssS'brnew0.0'
p321
(dp322
g230
F1.1512601613550217
ssS'brnew0.1'
p323
(dp324
g230
F1.1470236031146537
ssS'brnew0.2'
p325
(dp326
g230
F1.1417628242722566
ssS'brnew0.3'
p327
(dp328
g230
F1.1350175474550113
ssS'brnew0.4'
p329
(dp330
g230
F1.126007382827925
ssS'brnew0.5'
p331
(dp332
g230
F1.113348735642463
ssS'brnew0.6'
p333
(dp334
g230
F1.09427039677398
ssS'brnew0.7'
p335
(dp336
g230
F1.0624581693052582
sssS'cprime0.3'
p337
(dp338
S'brnew0.8'
p339
(dp340
g230
F1.082322102192436
ssS'brnew0.9'
p341
(dp342
g230
F0.977358872826249
ssS'brnew0.0'
p343
(dp344
g230
F1.1688443801296775
ssS'brnew0.1'
p345
(dp346
g230
F1.1661488397193436
ssS'brnew0.2'
p347
(dp348
g230
F1.1629050089482817
ssS'brnew0.3'
p349
(dp350
g230
F1.1588755253033483
ssS'brnew0.4'
p351
(dp352
g230
F1.15365612127715
ssS'brnew0.5'
p353
(dp354
g230
F1.1464921617351755
ssS'brnew0.6'
p355
(dp356
g230
F1.1358559940990176
ssS'brnew0.7'
p357
(dp358
g230
F1.1180945267396343
sssS'cprime0.2'
p359
(dp360
S'brnew0.8'
p361
(dp362
g230
F1.1417628242722566
ssS'brnew0.9'
p363
(dp364
g230
F1.09427039677398
ssS'brnew0.0'
p365
(dp366
g230
F1.1853025953138154
ssS'brnew0.1'
p367
(dp368
g230
F1.1834744645977306
ssS'brnew0.2'
p369
(dp370
g230
F1.1813429343082955
ssS'brnew0.3'
p371
(dp372
g230
F1.1787985080579844
ssS'brnew0.4'
p373
(dp374
g230
F1.1756696571283014
ssS'brnew0.5'
p375
(dp376
g230
F1.1716535696199162
ssS'brnew0.6'
p377
(dp378
g230
F1.1661488397193436
ssS'brnew0.7'
p379
(dp380
g230
F1.1577086742307
sssS'cprime0.1'
p381
(dp382
S'brnew0.8'
p383
(dp384
g230
F1.1813429343082955
ssS'brnew0.9'
p385
(dp386
g230
F1.1661488397193436
ssS'brnew0.0'
p387
(dp388
g230
F1.2002935354783322
ssS'brnew0.1'
p389
(dp390
g230
F1.1999326405663802
ssS'brnew0.2'
p391
(dp392
g230
F1.19935347521327
ssS'brnew0.3'
p393
(dp394
g230
F1.1984676115407573
ssS'brnew0.4'
p395
(dp396
g230
F1.1971621110931847
ssS'brnew0.5'
p397
(dp398
g230
F1.1952566766576076
ssS'brnew0.6'
p399
(dp400
g230
F1.1924762620001301
ssS'brnew0.7'
p401
(dp402
g230
F1.1882761483068853
sssS'cprime0.9'
p403
(dp404
S'brnew0.8'
p405
(dp406
g230
F0.5418441360490375
ssS'brnew0.9'
p407
(dp408
g230
F0.35238290189897525
ssS'brnew0.0'
p409
(dp410
g230
F0.9977512048464439
ssS'brnew0.1'
p411
(dp412
g230
F0.977358872826249
ssS'brnew0.2'
p413
(dp414
g230
F0.952463153353663
ssS'brnew0.3'
p415
(dp416
g230
F0.921513368816959
ssS'brnew0.4'
p417
(dp418
g230
F0.8822742558721304
ssS'brnew0.5'
p419
(dp420
g230
F0.8313541097591648
ssS'brnew0.6'
p421
(dp422
g230
F0.7636353294594662
ssS'brnew0.7'
p423
(dp424
g230
F0.6712422801529033
sssS'cprime0.8'
p425
(dp426
S'brnew0.8'
p427
(dp428
g230
F0.616193170794299
ssS'brnew0.9'
p429
(dp430
g230
F0.4109591057612997
ssS'brnew0.0'
p431
(dp432
g230
F1.0372142119439909
ssS'brnew0.1'
p433
(dp434
g230
F1.0205693339778799
ssS'brnew0.2'
p435
(dp436
g230
F0.9999907762168007
ssS'brnew0.3'
p437
(dp438
g230
F0.9741421480120369
ssS'brnew0.4'
p439
(dp440
g230
F0.9407202696097519
ssS'brnew0.5'
p441
(dp442
g230
F0.8962400815780234
ssS'brnew0.6'
p443
(dp444
g230
F0.8349605463118039
ssS'brnew0.7'
p445
(dp446
g230
F0.747181506836691
ssssS'600'
p447
(dp448
S'cprime0.5'
p449
(dp450
S'brnew0.8'
p451
(dp452
S'weight'
p453
F0.9326521690133736
ssS'brnew0.9'
p454
(dp455
g453
F0.7684160338688404
ssS'brnew0.0'
p456
(dp457
g453
F1.1121982062919316
ssS'brnew0.1'
p458
(dp459
g453
F1.1065705875576675
ssS'brnew0.2'
p460
(dp461
g453
F1.0996087159857488
ssS'brnew0.3'
p462
(dp463
g453
F1.090752581688096
ssS'brnew0.4'
p464
(dp465
g453
F1.0791193719394934
ssS'brnew0.5'
p466
(dp467
g453
F1.063083363930658
ssS'brnew0.6'
p468
(dp469
g453
F1.0396375278369405
ssS'brnew0.7'
p470
(dp471
g453
F1.0020838500843021
sssS'cprime0.7'
p472
(dp473
S'brnew0.8'
p474
(dp475
g453
F0.7738735495781822
ssS'brnew0.9'
p476
(dp477
g453
F0.5809992761868014
ssS'brnew0.0'
p478
(dp479
g453
F1.065006332770336
ssS'brnew0.1'
p480
(dp481
g453
F1.0546788405159742
ssS'brnew0.2'
p482
(dp483
g453
F1.0419425834930105
ssS'brnew0.3'
p484
(dp485
g453
F1.0258498843365547
ssS'brnew0.4'
p486
(dp487
g453
F1.0049330970954022
ssS'brnew0.5'
p488
(dp489
g453
F0.9767398534720543
ssS'brnew0.6'
p490
(dp491
g453
F0.9366280683603311
ssS'brnew0.7'
p492
(dp493
g453
F0.8756147794757404
sssS'cprime0.6'
p494
(dp495
S'brnew0.8'
p496
(dp497
g453
F0.8527460431524511
ssS'brnew0.9'
p498
(dp499
g453
F0.6670023281221984
ssS'brnew0.0'
p500
(dp501
g453
F1.0901821855881546
ssS'brnew0.1'
p502
(dp503
g453
F1.0823450460328876
ssS'brnew0.2'
p504
(dp505
g453
F1.072660220532074
ssS'brnew0.3'
p506
(dp507
g453
F1.0603647110291938
ssS'brnew0.4'
p508
(dp509
g453
F1.044253254565048
ssS'brnew0.5'
p510
(dp511
g453
F1.0222328598539665
ssS'brnew0.6'
p512
(dp513
g453
F0.9903855303557322
ssS'brnew0.7'
p514
(dp515
g453
F0.9405726342638997
sssS'cprime1.0'
p516
(dp517
S'brnew0.8'
p518
(dp519
g453
F0.5754763296731571
ssS'brnew0.9'
p520
(dp521
g453
F0.4031638629529317
ssS'brnew0.0'
p522
(dp523
g453
F0.9733406189158434
ssS'brnew0.1'
p524
(dp525
g453
F0.9549408395976238
ssS'brnew0.2'
p526
(dp527
g453
F0.9326521690133736
ssS'brnew0.3'
p528
(dp529
g453
F0.9052953767511482
ssS'brnew0.4'
p530
(dp531
g453
F0.8709574825582052
ssS'brnew0.5'
p532
(dp533
g453
F0.8267909929650383
ssS'brnew0.6'
p534
(dp535
g453
F0.7684160338688404
ssS'brnew0.7'
p536
(dp537
g453
F0.6886972814475822
sssS'cprime0.4'
p538
(dp539
S'brnew0.8'
p540
(dp541
g453
F1.007900302083328
ssS'brnew0.9'
p542
(dp543
g453
F0.8803139674467872
ssS'brnew0.0'
p544
(dp545
g453
F1.1311001192806531
ssS'brnew0.1'
p546
(dp547
g453
F1.127253132546232
ssS'brnew0.2'
p548
(dp549
g453
F1.1225378494219147
ssS'brnew0.3'
p550
(dp551
g453
F1.116598912837271
ssS'brnew0.4'
p552
(dp553
g453
F1.1088240044075746
ssS'brnew0.5'
p554
(dp555
g453
F1.0981203310537055
ssS'brnew0.6'
p556
(dp557
g453
F1.0823450460328876
ssS'brnew0.7'
p558
(dp559
g453
F1.0567841191732366
sssS'cprime0.3'
p560
(dp561
S'brnew0.8'
p562
(dp563
g453
F1.072660220532074
ssS'brnew0.9'
p564
(dp565
g453
F0.9903855303557322
ssS'brnew0.0'
p566
(dp567
g453
F1.1472911380383142
ssS'brnew0.1'
p568
(dp569
g453
F1.1448313421199212
ssS'brnew0.2'
p570
(dp571
g453
F1.141846746739544
ssS'brnew0.3'
p572
(dp573
g453
F1.1381206690789556
ssS'brnew0.4'
p574
(dp575
g453
F1.1332935245519213
ssS'brnew0.5'
p576
(dp577
g453
F1.1267682579061447
ssS'brnew0.6'
p578
(dp579
g453
F1.1173277429567545
ssS'brnew0.7'
p580
(dp581
g453
F1.1020939907455798
sssS'cprime0.2'
p582
(dp583
S'brnew0.8'
p584
(dp585
g453
F1.1225378494219147
ssS'brnew0.9'
p586
(dp587
g453
F1.0823450460328876
ssS'brnew0.0'
p588
(dp589
g453
F1.1600485055424021
ssS'brnew0.1'
p590
(dp591
g453
F1.1589531796376347
ssS'brnew0.2'
p592
(dp593
g453
F1.157540043731736
ssS'brnew0.3'
p594
(dp595
g453
F1.1556849386984605
ssS'brnew0.4'
p596
(dp597
g453
F1.1532114970536735
ssS'brnew0.5'
p598
(dp599
g453
F1.149795074223341
ssS'brnew0.6'
p600
(dp601
g453
F1.1448313421199212
ssS'brnew0.7'
p602
(dp603
g453
F1.1370288222475406
sssS'cprime0.1'
p604
(dp605
S'brnew0.8'
p606
(dp607
g453
F1.157540043731736
ssS'brnew0.9'
p608
(dp609
g453
F1.1448313421199212
ssS'brnew0.0'
p610
(dp611
g453
F1.1623099780814568
ssS'brnew0.1'
p612
(dp613
g453
F1.1628060819020327
ssS'brnew0.2'
p614
(dp615
g453
F1.1632101978838367
ssS'brnew0.3'
p616
(dp617
g453
F1.1635359173585371
ssS'brnew0.4'
p618
(dp619
g453
F1.1637267422036848
ssS'brnew0.5'
p620
(dp621
g453
F1.1636554876020226
ssS'brnew0.6'
p622
(dp623
g453
F1.1631228176448245
ssS'brnew0.7'
p624
(dp625
g453
F1.1615655772658422
sssS'cprime0.9'
p626
(dp627
S'brnew0.8'
p628
(dp629
g453
F0.6338637986356573
ssS'brnew0.9'
p630
(dp631
g453
F0.451624770944076
ssS'brnew0.0'
p632
(dp633
g453
F1.0061447384753166
ssS'brnew0.1'
p634
(dp635
g453
F0.9903855303557322
ssS'brnew0.2'
p636
(dp637
g453
F0.9712762308704681
ssS'brnew0.3'
p638
(dp639
g453
F0.9474513115269387
ssS'brnew0.4'
p640
(dp641
g453
F0.9171566021430076
ssS'brnew0.5'
p642
(dp643
g453
F0.877506929141468
ssS'brnew0.6'
p644
(dp645
g453
F0.8236671036698999
ssS'brnew0.7'
p646
(dp647
g453
F0.747440483553573
sssS'cprime0.8'
p648
(dp649
S'brnew0.8'
p650
(dp651
g453
F0.7001685161383199
ssS'brnew0.9'
p652
(dp653
g453
F0.5100154906270065
ssS'brnew0.0'
p654
(dp655
g453
F1.0368727631125454
ssS'brnew0.1'
p656
(dp657
g453
F1.0238639753707
ssS'brnew0.2'
p658
(dp659
g453
F1.007900302083328
ssS'brnew0.3'
p660
(dp661
g453
F0.987959810541827
ssS'brnew0.4'
p662
(dp663
g453
F0.9622409649699619
ssS'brnew0.5'
p664
(dp665
g453
F0.9279596976581592
ssS'brnew0.6'
p666
(dp667
g453
F0.8803139674467872
ssS'brnew0.7'
p668
(dp669
g453
F0.81035046746911
ssssS'1500'
p670
(dp671
S'cprime1.0'
p672
(dp673
S'brnew0.8'
p674
(dp675
S'weight'
p676
F0.43086430938572706
ssS'brnew0.9'
p677
(dp678
g676
F0.23055239973776456
ssS'brnew0.0'
p679
(dp680
g676
F1.0867178663698882
ssS'brnew0.1'
p681
(dp682
g676
F1.0564963062832038
ssS'brnew0.2'
p683
(dp684
g676
F1.0185881711977438
ssS'brnew0.3'
p685
(dp686
g676
F0.9705169046523262
ssS'brnew0.4'
p687
(dp688
g676
F0.9089672824299854
ssS'brnew0.5'
p689
(dp690
g676
F0.8296173307541794
ssS'brnew0.6'
p691
(dp692
g676
F0.7271682156803874
ssS'brnew0.7'
p693
(dp694
g676
F0.5958583490481648
sssS'cprime0.7'
p695
(dp696
S'brnew0.8'
p697
(dp698
g676
F0.7365362600376518
ssS'brnew0.9'
p699
(dp700
g676
F0.4382945863455471
ssS'brnew0.0'
p701
(dp702
g676
F1.2107577882802412
ssS'brnew0.1'
p703
(dp704
g676
F1.19967630333161
ssS'brnew0.2'
p705
(dp706
g676
F1.1848285834561667
ssS'brnew0.3'
p707
(dp708
g676
F1.1643730772215868
ssS'brnew0.4'
p709
(dp710
g676
F1.135241754352942
ssS'brnew0.5'
p711
(dp712
g676
F1.0921169520556928
ssS'brnew0.6'
p713
(dp714
g676
F1.025396103688588
ssS'brnew0.7'
p715
(dp716
g676
F0.9173637059830482
sssS'cprime0.6'
p717
(dp718
S'brnew0.8'
p719
(dp720
g676
F0.876193022732687
ssS'brnew0.9'
p721
(dp722
g676
F0.5622288110158686
ssS'brnew0.0'
p723
(dp724
g676
F1.233765600032981
ssS'brnew0.1'
p725
(dp726
g676
F1.2272591215700352
ssS'brnew0.2'
p727
(dp728
g676
F1.2183896798839369
ssS'brnew0.3'
p729
(dp730
g676
F1.2059089968512315
ssS'brnew0.4'
p731
(dp732
g676
F1.1876314677177264
ssS'brnew0.5'
p733
(dp734
g676
F1.1595134216119205
ssS'brnew0.6'
p735
(dp736
g676
F1.113491879584286
ssS'brnew0.7'
p737
(dp738
g676
F1.0322158809797517
sssS'cprime0.5'
p739
(dp740
S'brnew0.8'
p741
(dp742
g676
F1.0185881711977438
ssS'brnew0.9'
p743
(dp744
g676
F0.7271682156803874
ssS'brnew0.0'
p745
(dp746
g676
F1.248594447416692
ssS'brnew0.1'
p747
(dp748
g676
F1.2453079031738254
ssS'brnew0.2'
p749
(dp750
g676
F1.240751591796721
ssS'brnew0.3'
p751
(dp752
g676
F1.2342087490833726
ssS'brnew0.4'
p753
(dp754
g676
F1.2243893265695214
ssS'brnew0.5'
p755
(dp756
g676
F1.208779832290452
ssS'brnew0.6'
p757
(dp758
g676
F1.1819939130159842
ssS'brnew0.7'
p759
(dp760
g676
F1.1309440278139398
sssS'cprime0.4'
p761
(dp762
S'brnew0.8'
p763
(dp764
g676
F1.1395098642470987
ssS'brnew0.9'
p765
(dp766
g676
F0.9258379554321002
ssS'brnew0.0'
p767
(dp768
g676
F1.2568288533881484
ssS'brnew0.1'
p769
(dp770
g676
F1.255512228670162
ssS'brnew0.2'
p771
(dp772
g676
F1.2536455120551042
ssS'brnew0.3'
p773
(dp774
g676
F1.2508998718496673
ssS'brnew0.4'
p775
(dp776
g676
F1.2466628067036791
ssS'brnew0.5'
p777
(dp778
g676
F1.239706359621599
ssS'brnew0.6'
p779
(dp780
g676
F1.2272591215700352
ssS'brnew0.7'
p781
(dp782
g676
F1.2019990250417323
sssS'cprime0.3'
p783
(dp784
S'brnew0.8'
p785
(dp786
g676
F1.2183896798839369
ssS'brnew0.9'
p787
(dp788
g676
F1.113491879584286
ssS'brnew0.0'
p789
(dp790
g676
F1.2604089393837035
ssS'brnew0.1'
p791
(dp792
g676
F1.2600518605038507
ssS'brnew0.2'
p793
(dp794
g676
F1.2595358750225079
ssS'brnew0.3'
p795
(dp796
g676
F1.2587531731586012
ssS'brnew0.4'
p797
(dp798
g676
F1.2574966569710115
ssS'brnew0.5'
p799
(dp800
g676
F1.2553361425270875
ssS'brnew0.6'
p801
(dp802
g676
F1.251262730479193
ssS'brnew0.7'
p803
(dp804
g676
F1.242447766316568
sssS'cprime0.2'
p805
(dp806
S'brnew0.8'
p807
(dp808
g676
F1.2536455120551042
ssS'brnew0.9'
p809
(dp810
g676
F1.2272591215700352
ssS'brnew0.0'
p811
(dp812
g676
F1.2620853115406305
ssS'brnew0.1'
p813
(dp814
g676
F1.261840675276794
ssS'brnew0.2'
p815
(dp816
g676
F1.2616030236647573
ssS'brnew0.3'
p817
(dp818
g676
F1.2613667066769756
ssS'brnew0.4'
p819
(dp820
g676
F1.2610960744837583
ssS'brnew0.5'
p821
(dp822
g676
F1.26072239008831
ssS'brnew0.6'
p823
(dp824
g676
F1.2600518605038507
ssS'brnew0.7'
p825
(dp826
g676
F1.2584956234214197
sssS'cprime0.1'
p827
(dp828
S'brnew0.8'
p829
(dp830
g676
F1.2616030236647573
ssS'brnew0.9'
p831
(dp832
g676
F1.2600518605038507
ssS'brnew0.0'
p833
(dp834
g676
F1.2670480154572952
ssS'brnew0.1'
p835
(dp836
g676
F1.267034813251036
ssS'brnew0.2'
p837
(dp838
g676
F1.2668315539058026
ssS'brnew0.3'
p839
(dp840
g676
F1.2664102611514307
ssS'brnew0.4'
p841
(dp842
g676
F1.265746226777027
ssS'brnew0.5'
p843
(dp844
g676
F1.2648448708977695
ssS'brnew0.6'
p845
(dp846
g676
F1.2637580988839832
ssS'brnew0.7'
p847
(dp848
g676
F1.262615796361145
sssS'cprime0.9'
p849
(dp850
S'brnew0.8'
p851
(dp852
g676
F0.5126716205289977
ssS'brnew0.9'
p853
(dp854
g676
F0.2806127042312564
ssS'brnew0.0'
p855
(dp856
g676
F1.1369533204206752
ssS'brnew0.1'
p857
(dp858
g676
F1.113491879584286
ssS'brnew0.2'
p859
(dp860
g676
F1.0833358806802118
ssS'brnew0.3'
p861
(dp862
g676
F1.0439226529458565
ssS'brnew0.4'
p863
(dp864
g676
F0.9915179064233404
ssS'brnew0.5'
p865
(dp866
g676
F0.9207443152358838
ssS'brnew0.6'
p867
(dp868
g676
F0.8240224197011142
ssS'brnew0.7'
p869
(dp870
g676
F0.6915228095971996
sssS'cprime0.8'
p871
(dp872
S'brnew0.8'
p873
(dp874
g676
F0.6140359199692322
ssS'brnew0.9'
p875
(dp876
g676
F0.347495326806564
ssS'brnew0.0'
p877
(dp878
g676
F1.1785529044879253
ssS'brnew0.1'
p879
(dp880
g676
F1.1616807967482388
ssS'brnew0.2'
p881
(dp882
g676
F1.1395098642470987
ssS'brnew0.3'
p883
(dp884
g676
F1.1097054349286293
ssS'brnew0.4'
p885
(dp886
g676
F1.0686213107639018
ssS'brnew0.5'
p887
(dp888
g676
F1.0104401287049407
ssS'brnew0.6'
p889
(dp890
g676
F0.9258379554321002
ssS'brnew0.7'
p891
(dp892
g676
F0.8003544228819643
ssssS'300'
p893
(dp894
S'cprime0.5'
p895
(dp896
S'brnew0.8'
p897
(dp898
S'weight'
p899
F1.0171855936489822
ssS'brnew0.9'
p900
(dp901
g899
F1.0895463603740563
ssS'brnew0.0'
p902
(dp903
g899
F0.9545430753884817
ssS'brnew0.1'
p904
(dp905
g899
F0.9564076392941762
ssS'brnew0.2'
p906
(dp907
g899
F0.9587335268472912
ssS'brnew0.3'
p908
(dp909
g899
F0.9616764491322415
ssS'brnew0.4'
p910
(dp911
g899
F0.9655464563732735
ssS'brnew0.5'
p912
(dp913
g899
F0.9709440457715265
ssS'brnew0.6'
p914
(dp915
g899
F0.9788886319366943
ssS'brnew0.7'
p916
(dp917
g899
F0.9918974289688567
sssS'cprime0.7'
p918
(dp919
S'brnew0.8'
p920
(dp921
g899
F1.0866741137229698
ssS'brnew0.9'
p922
(dp923
g899
F1.2163309449025168
ssS'brnew0.0'
p924
(dp925
g899
F0.9702828000498479
ssS'brnew0.1'
p926
(dp927
g899
F0.9737521073299517
ssS'brnew0.2'
p928
(dp929
g899
F0.9781119191000388
ssS'brnew0.3'
p930
(dp931
g899
F0.9835427254488729
ssS'brnew0.4'
p932
(dp933
g899
F0.9909279351737469
ssS'brnew0.5'
p934
(dp935
g899
F1.0007894333905327
ssS'brnew0.6'
p936
(dp937
g899
F1.0157124973046796
ssS'brnew0.7'
p938
(dp939
g899
F1.039895295952155
sssS'cprime0.6'
p940
(dp941
S'brnew0.8'
p942
(dp943
g899
F1.0495788352827229
ssS'brnew0.9'
p944
(dp945
g899
F1.1494998062677184
ssS'brnew0.0'
p946
(dp947
g899
F0.9618976608592577
ssS'brnew0.1'
p948
(dp949
g899
F0.96443743443248
ssS'brnew0.2'
p950
(dp951
g899
F0.9677336689546187
ssS'brnew0.3'
p952
(dp953
g899
F0.9718481949147897
ssS'brnew0.4'
p954
(dp955
g899
F0.9773392436154676
ssS'brnew0.5'
p956
(dp957
g899
F0.9848825085786936
ssS'brnew0.6'
p958
(dp959
g899
F0.9960044428737547
ssS'brnew0.7'
p960
(dp961
g899
F1.0142825790231
sssS'cprime1.0'
p962
(dp963
S'brnew0.8'
p964
(dp965
g899
F1.2213208127844437
ssS'brnew0.9'
p966
(dp967
g899
F1.4377829542073544
ssS'brnew0.0'
p968
(dp969
g899
F1.0022215315359397
ssS'brnew0.1'
p970
(dp971
g899
F1.0089386798810327
ssS'brnew0.2'
p972
(dp973
g899
F1.0171855936489822
ssS'brnew0.3'
p974
(dp975
g899
F1.0278145142184623
ssS'brnew0.4'
p976
(dp977
g899
F1.0417569603681887
ssS'brnew0.5'
p978
(dp979
g899
F1.061139493806263
ssS'brnew0.6'
p980
(dp981
g899
F1.0895463603740563
ssS'brnew0.7'
p982
(dp983
g899
F1.1353115262351965
sssS'cprime0.4'
p984
(dp985
S'brnew0.8'
p986
(dp987
g899
F0.9897892799738313
ssS'brnew0.9'
p988
(dp989
g899
F1.037983749790633
ssS'brnew0.0'
p990
(dp991
g899
F0.9484635613420193
ssS'brnew0.1'
p992
(dp993
g899
F0.9496495276632988
ssS'brnew0.2'
p994
(dp995
g899
F0.9512574127234459
ssS'brnew0.3'
p996
(dp997
g899
F0.9531923717167471
ssS'brnew0.4'
p998
(dp999
g899
F0.955670030915885
ssS'brnew0.5'
p1000
(dp1001
g899
F0.9592556889246294
ssS'brnew0.6'
p1002
(dp1003
g899
F0.96443743443248
ssS'brnew0.7'
p1004
(dp1005
g899
F0.9730742071131702
sssS'cprime0.3'
p1006
(dp1007
S'brnew0.8'
p1008
(dp1009
g899
F0.9677336689546187
ssS'brnew0.9'
p1010
(dp1011
g899
F0.9960044428737547
ssS'brnew0.0'
p1012
(dp1013
g899
F0.9437469408897312
ssS'brnew0.1'
p1014
(dp1015
g899
F0.9444756780633908
ssS'brnew0.2'
p1016
(dp1017
g899
F0.9453531336944512
ssS'brnew0.3'
p1018
(dp1019
g899
F0.9463985507347581
ssS'brnew0.4'
p1020
(dp1021
g899
F0.947792000845595
ssS'brnew0.5'
p1022
(dp1023
g899
F0.9498234341472751
ssS'brnew0.6'
p1024
(dp1025
g899
F0.9528867392664928
ssS'brnew0.7'
p1026
(dp1027
g899
F0.9579295636308239
sssS'cprime0.2'
p1028
(dp1029
S'brnew0.8'
p1030
(dp1031
g899
F0.9512574127234459
ssS'brnew0.9'
p1032
(dp1033
g899
F0.96443743443248
ssS'brnew0.0'
p1034
(dp1035
g899
F0.9398863142523144
ssS'brnew0.1'
p1036
(dp1037
g899
F0.9401674902360907
ssS'brnew0.2'
p1038
(dp1039
g899
F0.9409078948628159
ssS'brnew0.3'
p1040
(dp1041
g899
F0.9414372795752977
ssS'brnew0.4'
p1042
(dp1043
g899
F0.9423661703741192
ssS'brnew0.5'
p1044
(dp1045
g899
F0.9432133027162167
ssS'brnew0.6'
p1046
(dp1047
g899
F0.9444756780633908
ssS'brnew0.7'
p1048
(dp1049
g899
F0.9466327579697714
sssS'cprime0.1'
p1050
(dp1051
S'brnew0.8'
p1052
(dp1053
g899
F0.9409078948628159
ssS'brnew0.9'
p1054
(dp1055
g899
F0.9444756780633908
ssS'brnew0.0'
p1056
(dp1057
g899
F0.9297562599683624
ssS'brnew0.1'
p1058
(dp1059
g899
F0.930820424716122
ssS'brnew0.2'
p1060
(dp1061
g899
F0.9317220244784656
ssS'brnew0.3'
p1062
(dp1063
g899
F0.9327263751778514
ssS'brnew0.4'
p1064
(dp1065
g899
F0.9339848070222693
ssS'brnew0.5'
p1066
(dp1067
g899
F0.9356170953638572
ssS'brnew0.6'
p1068
(dp1069
g899
F0.937294141594039
ssS'brnew0.7'
p1070
(dp1071
g899
F0.9387898117705541
sssS'cprime0.9'
p1072
(dp1073
S'brnew0.8'
p1074
(dp1075
g899
F1.1732167265639617
ssS'brnew0.9'
p1076
(dp1077
g899
F1.3624749526969586
ssS'brnew0.0'
p1078
(dp1079
g899
F0.9903557467737748
ssS'brnew0.1'
p1080
(dp1081
g899
F0.9960044428737547
ssS'brnew0.2'
p1082
(dp1083
g899
F1.00279140570583
ssS'brnew0.3'
p1084
(dp1085
g899
F1.011613661458765
ssS'brnew0.4'
p1086
(dp1087
g899
F1.0232169424653688
ssS'brnew0.5'
p1088
(dp1089
g899
F1.0390325096144886
ssS'brnew0.6'
p1090
(dp1091
g899
F1.0626540330437293
ssS'brnew0.7'
p1092
(dp1093
g899
F1.100686823103185
sssS'cprime0.8'
p1094
(dp1095
S'brnew0.8'
p1096
(dp1097
g899
F1.1281032675820943
ssS'brnew0.9'
p1098
(dp1099
g899
F1.2879825164512986
ssS'brnew0.0'
p1100
(dp1101
g899
F0.9798005808248493
ssS'brnew0.1'
p1102
(dp1103
g899
F0.9843387798225123
ssS'brnew0.2'
p1104
(dp1105
g899
F0.9897892799738313
ssS'brnew0.3'
p1106
(dp1107
g899
F0.9969120368181597
ssS'brnew0.4'
p1108
(dp1109
g899
F1.006094755809523
ssS'brnew0.5'
p1110
(dp1111
g899
F1.018966096723762
ssS'brnew0.6'
p1112
(dp1113
g899
F1.037983749790633
ssS'brnew0.7'
p1114
(dp1115
g899
F1.068735098295014
ssssS'400'
p1116
(dp1117
S'cprime0.5'
p1118
(dp1119
S'brnew0.8'
p1120
(dp1121
S'weight'
p1122
F0.9796876869235853
ssS'brnew0.9'
p1123
(dp1124
g1122
F0.9189082496399482
ssS'brnew0.0'
p1125
(dp1126
g1122
F1.0437884178033356
ssS'brnew0.1'
p1127
(dp1128
g1122
F1.0420366600408877
ssS'brnew0.2'
p1129
(dp1130
g1122
F1.0397472556250982
ssS'brnew0.3'
p1131
(dp1132
g1122
F1.036761582126916
ssS'brnew0.4'
p1133
(dp1134
g1122
F1.0327443502065894
ssS'brnew0.5'
p1135
(dp1136
g1122
F1.0270475972154436
ssS'brnew0.6'
p1137
(dp1138
g1122
F1.0185674124943036
ssS'brnew0.7'
p1139
(dp1140
g1122
F1.0050196055986922
sssS'cprime0.7'
p1141
(dp1142
S'brnew0.8'
p1143
(dp1144
g1122
F0.9209914966831034
ssS'brnew0.9'
p1145
(dp1146
g1122
F0.8406096841648618
ssS'brnew0.0'
p1147
(dp1148
g1122
F1.027761195461565
ssS'brnew0.1'
p1149
(dp1150
g1122
F1.024035272304724
ssS'brnew0.2'
p1151
(dp1152
g1122
F1.019412867720938
ssS'brnew0.3'
p1153
(dp1154
g1122
F1.0135686684953786
ssS'brnew0.4'
p1155
(dp1156
g1122
F1.0059156364238142
ssS'brnew0.5'
p1157
(dp1158
g1122
F0.9957744599386944
ssS'brnew0.6'
p1159
(dp1160
g1122
F0.9811215403655598
ssS'brnew0.7'
p1161
(dp1162
g1122
F0.9588538490796344
sssS'cprime0.6'
p1163
(dp1164
S'brnew0.8'
p1165
(dp1166
g1122
F0.9504734740787091
ssS'brnew0.9'
p1167
(dp1168
g1122
F0.8785104915949173
ssS'brnew0.0'
p1169
(dp1170
g1122
F1.0365904008594473
ssS'brnew0.1'
p1171
(dp1172
g1122
F1.0338826155806833
ssS'brnew0.2'
p1173
(dp1174
g1122
F1.030461994623969
ssS'brnew0.3'
p1175
(dp1176
g1122
F1.026047112834369
ssS'brnew0.4'
p1177
(dp1178
g1122
F1.020264781847209
ssS'brnew0.5'
p1179
(dp1180
g1122
F1.0123234216939443
ssS'brnew0.6'
p1181
(dp1182
g1122
F1.0009929511232103
ssS'brnew0.7'
p1183
(dp1184
g1122
F0.9825788739933996
sssS'cprime1.0'
p1185
(dp1186
S'brnew0.8'
p1187
(dp1188
g1122
F0.8380119928860662
ssS'brnew0.9'
p1189
(dp1190
g1122
F0.7415019479053654
ssS'brnew0.0'
p1191
(dp1192
g1122
F0.9944679516480676
ssS'brnew0.1'
p1193
(dp1194
g1122
F0.9877797994322887
ssS'brnew0.2'
p1195
(dp1196
g1122
F0.9796876869235853
ssS'brnew0.3'
p1197
(dp1198
g1122
F0.9697324742424823
ssS'brnew0.4'
p1199
(dp1200
g1122
F0.957112633764007
ssS'brnew0.5'
p1201
(dp1202
g1122
F0.9408419905233701
ssS'brnew0.6'
p1203
(dp1204
g1122
F0.9189082496399482
ssS'brnew0.7'
p1205
(dp1206
g1122
F0.8874414707551854
sssS'cprime0.4'
p1207
(dp1208
S'brnew0.8'
p1209
(dp1210
g1122
F1.0071382693709146
ssS'brnew0.9'
p1211
(dp1212
g1122
F0.9605687467760747
ssS'brnew0.0'
p1213
(dp1214
g1122
F1.049057477864015
ssS'brnew0.1'
p1215
(dp1216
g1122
F1.0481212149002923
ssS'brnew0.2'
p1217
(dp1218
g1122
F1.0468458365370754
ssS'brnew0.3'
p1219
(dp1220
g1122
F1.0451374339841097
ssS'brnew0.4'
p1221
(dp1222
g1122
F1.0427361211398258
ssS'brnew0.5'
p1223
(dp1224
g1122
F1.0392528501558513
ssS'brnew0.6'
p1225
(dp1226
g1122
F1.0338826155806833
ssS'brnew0.7'
p1227
(dp1228
g1122
F1.0247669849332852
sssS'cprime0.3'
p1229
(dp1230
S'brnew0.8'
p1231
(dp1232
g1122
F1.030461994623969
ssS'brnew0.9'
p1233
(dp1234
g1122
F1.0009929511232103
ssS'brnew0.0'
p1235
(dp1236
g1122
F1.0519092461629944
ssS'brnew0.1'
p1237
(dp1238
g1122
F1.0516494615683452
ssS'brnew0.2'
p1239
(dp1240
g1122
F1.051218513508541
ssS'brnew0.3'
p1241
(dp1242
g1122
F1.050586640842004
ssS'brnew0.4'
p1243
(dp1244
g1122
F1.0495830779600825
ssS'brnew0.5'
p1245
(dp1246
g1122
F1.047990958763656
ssS'brnew0.6'
p1247
(dp1248
g1122
F1.0453553743246642
ssS'brnew0.7'
p1249
(dp1250
g1122
F1.0405566117008833
sssS'cprime0.2'
p1251
(dp1252
S'brnew0.8'
p1253
(dp1254
g1122
F1.0468458365370754
ssS'brnew0.9'
p1255
(dp1256
g1122
F1.0338826155806833
ssS'brnew0.0'
p1257
(dp1258
g1122
F1.0516479088369053
ssS'brnew0.1'
p1259
(dp1260
g1122
F1.0517416908502712
ssS'brnew0.2'
p1261
(dp1262
g1122
F1.0520340939050918
ssS'brnew0.3'
p1263
(dp1264
g1122
F1.0521084111083383
ssS'brnew0.4'
p1265
(dp1266
g1122
F1.0521750872616322
ssS'brnew0.5'
p1267
(dp1268
g1122
F1.0521027411695076
ssS'brnew0.6'
p1269
(dp1270
g1122
F1.0516494615683452
ssS'brnew0.7'
p1271
(dp1272
g1122
F1.0503687583141759
sssS'cprime0.1'
p1273
(dp1274
S'brnew0.8'
p1275
(dp1276
g1122
F1.0520340939050918
ssS'brnew0.9'
p1277
(dp1278
g1122
F1.0516494615683452
ssS'brnew0.0'
p1279
(dp1280
g1122
F1.0472618566453282
ssS'brnew0.1'
p1281
(dp1282
g1122
F1.0475445267015766
ssS'brnew0.2'
p1283
(dp1284
g1122
F1.0479701905881702
ssS'brnew0.3'
p1285
(dp1286
g1122
F1.0485734668347095
ssS'brnew0.4'
p1287
(dp1288
g1122
F1.0493351295242201
ssS'brnew0.5'
p1289
(dp1290
g1122
F1.0497425622844636
ssS'brnew0.6'
p1291
(dp1292
g1122
F1.0503985153908642
ssS'brnew0.7'
p1293
(dp1294
g1122
F1.0511151004931827
sssS'cprime0.9'
p1295
(dp1296
S'brnew0.8'
p1297
(dp1298
g1122
F0.8644237489278636
ssS'brnew0.9'
p1299
(dp1300
g1122
F0.7723713555949411
ssS'brnew0.0'
p1301
(dp1302
g1122
F1.006508141133637
ssS'brnew0.1'
p1303
(dp1304
g1122
F1.0009929511232103
ssS'brnew0.2'
p1305
(dp1306
g1122
F0.9937854584627763
ssS'brnew0.3'
p1307
(dp1308
g1122
F0.9850525095599765
ssS'brnew0.4'
p1309
(dp1310
g1122
F0.9739778224548281
ssS'brnew0.5'
p1311
(dp1312
g1122
F0.9595042917872278
ssS'brnew0.6'
p1313
(dp1314
g1122
F0.9397395120858878
ssS'brnew0.7'
p1315
(dp1316
g1122
F0.9107729646370399
sssS'cprime0.8'
p1317
(dp1318
S'brnew0.8'
p1319
(dp1320
g1122
F0.8921131993358603
ssS'brnew0.9'
p1321
(dp1322
g1122
F0.8052861875966654
ssS'brnew0.0'
p1323
(dp1324
g1122
F1.0175942185032976
ssS'brnew0.1'
p1325
(dp1326
g1122
F1.0129149952915442
ssS'brnew0.2'
p1327
(dp1328
g1122
F1.0071382693709146
ssS'brnew0.3'
p1329
(dp1330
g1122
F1.0004135668462428
ssS'brnew0.4'
p1331
(dp1332
g1122
F0.9904627405996639
ssS'brnew0.5'
p1333
(dp1334
g1122
F0.9779760906937459
ssS'brnew0.6'
p1335
(dp1336
g1122
F0.9605687467760747
ssS'brnew0.7'
p1337
(dp1338
g1122
F0.9347550941409513
ssssS'700'
p1339
(dp1340
S'cprime0.5'
p1341
(dp1342
S'brnew0.8'
p1343
(dp1344
S'weight'
p1345
F0.9138807442543213
ssS'brnew0.9'
p1346
(dp1347
g1345
F0.7202387352026566
ssS'brnew0.0'
p1348
(dp1349
g1345
F1.125282107146973
ssS'brnew0.1'
p1350
(dp1351
g1345
F1.1190633532851864
ssS'brnew0.2'
p1352
(dp1353
g1345
F1.111264878930032
ssS'brnew0.3'
p1354
(dp1355
g1345
F1.1012337075002978
ssS'brnew0.4'
p1356
(dp1357
g1345
F1.0878651945123639
ssS'brnew0.5'
p1358
(dp1359
g1345
F1.0692361580401144
ssS'brnew0.6'
p1360
(dp1361
g1345
F1.0416369090231994
ssS'brnew0.7'
p1362
(dp1363
g1345
F0.9970054546207701
sssS'cprime0.7'
p1364
(dp1365
S'brnew0.8'
p1366
(dp1367
g1345
F0.7265026906822656
ssS'brnew0.9'
p1368
(dp1369
g1345
F0.513181848017011
ssS'brnew0.0'
p1370
(dp1371
g1345
F1.0714704701234021
ssS'brnew0.1'
p1372
(dp1373
g1345
F1.0593747554455217
ssS'brnew0.2'
p1374
(dp1375
g1345
F1.044379509193882
ssS'brnew0.3'
p1376
(dp1377
g1345
F1.0253381678801146
ssS'brnew0.4'
p1378
(dp1379
g1345
F1.0005112013460318
ssS'brnew0.5'
p1380
(dp1381
g1345
F0.9667043978741087
ssS'brnew0.6'
p1382
(dp1383
g1345
F0.9186058772405383
ssS'brnew0.7'
p1384
(dp1385
g1345
F0.8457431080645627
sssS'cprime0.6'
p1386
(dp1387
S'brnew0.8'
p1388
(dp1389
g1345
F0.8186353055131665
ssS'brnew0.9'
p1390
(dp1391
g1345
F0.6061078008153679
ssS'brnew0.0'
p1392
(dp1393
g1345
F1.1005908339402852
ssS'brnew0.1'
p1394
(dp1395
g1345
F1.091607422577808
ssS'brnew0.2'
p1396
(dp1397
g1345
F1.0804043506370349
ssS'brnew0.3'
p1398
(dp1399
g1345
F1.0660640716075673
ssS'brnew0.4'
p1400
(dp1401
g1345
F1.0471154176077022
ssS'brnew0.5'
p1402
(dp1403
g1345
F1.0210475600239999
ssS'brnew0.6'
p1404
(dp1405
g1345
F0.9830812491976458
ssS'brnew0.7'
p1406
(dp1407
g1345
F0.92336793200606
sssS'cprime1.0'
p1408
(dp1409
S'brnew0.8'
p1410
(dp1411
g1345
F0.5073376951957626
ssS'brnew0.9'
p1412
(dp1413
g1345
F0.3312223175297461
ssS'brnew0.0'
p1414
(dp1415
g1345
F0.962665983454021
ssS'brnew0.1'
p1416
(dp1417
g1345
F0.9405691777330133
ssS'brnew0.2'
p1418
(dp1419
g1345
F0.9138807442543213
ssS'brnew0.3'
p1420
(dp1421
g1345
F0.8811310454883156
ssS'brnew0.4'
p1422
(dp1423
g1345
F0.8402021252324637
ssS'brnew0.5'
p1424
(dp1425
g1345
F0.7880617729052539
ssS'brnew0.6'
p1426
(dp1427
g1345
F0.7202387352026566
ssS'brnew0.7'
p1428
(dp1429
g1345
F0.6300993370279336
sssS'cprime0.4'
p1430
(dp1431
S'brnew0.8'
p1432
(dp1433
g1345
F1.004006577947071
ssS'brnew0.9'
p1434
(dp1435
g1345
F0.8513384292019774
ssS'brnew0.0'
p1436
(dp1437
g1345
F1.1451934854697774
ssS'brnew0.1'
p1438
(dp1439
g1345
F1.1413023294060356
ssS'brnew0.2'
p1440
(dp1441
g1345
F1.1363985673520431
ssS'brnew0.3'
p1442
(dp1443
g1345
F1.1300626037537922
ssS'brnew0.4'
p1444
(dp1445
g1345
F1.1215580878449654
ssS'brnew0.5'
p1446
(dp1447
g1345
F1.1095882092077047
ssS'brnew0.6'
p1448
(dp1449
g1345
F1.091607422577808
ssS'brnew0.7'
p1450
(dp1451
g1345
F1.0618336937880795
sssS'cprime0.3'
p1452
(dp1453
S'brnew0.8'
p1454
(dp1455
g1345
F1.0804043506370349
ssS'brnew0.9'
p1456
(dp1457
g1345
F0.9830812491976458
ssS'brnew0.0'
p1458
(dp1459
g1345
F1.160357956266255
ssS'brnew0.1'
p1460
(dp1461
g1345
F1.158194766524967
ssS'brnew0.2'
p1462
(dp1463
g1345
F1.155503045780099
ssS'brnew0.3'
p1464
(dp1465
g1345
F1.1520316745995545
ssS'brnew0.4'
p1466
(dp1467
g1345
F1.147375006023503
ssS'brnew0.5'
p1468
(dp1469
g1345
F1.140809565962967
ssS'brnew0.6'
p1470
(dp1471
g1345
F1.1308623257801773
ssS'brnew0.7'
p1472
(dp1473
g1345
F1.1140760638478662
sssS'cprime0.2'
p1474
(dp1475
S'brnew0.8'
p1476
(dp1477
g1345
F1.1363985673520431
ssS'brnew0.9'
p1478
(dp1479
g1345
F1.091607422577808
ssS'brnew0.0'
p1480
(dp1481
g1345
F1.1714464375783475
ssS'brnew0.1'
p1482
(dp1483
g1345
F1.170467976497931
ssS'brnew0.2'
p1484
(dp1485
g1345
F1.1692147031546891
ssS'brnew0.3'
p1486
(dp1487
g1345
F1.167602234687518
ssS'brnew0.4'
p1488
(dp1489
g1345
F1.1654734282435317
ssS'brnew0.5'
p1490
(dp1491
g1345
F1.1625317778150364
ssS'brnew0.6'
p1492
(dp1493
g1345
F1.158194766524967
ssS'brnew0.7'
p1494
(dp1495
g1345
F1.150996729097554
sssS'cprime0.1'
p1496
(dp1497
S'brnew0.8'
p1498
(dp1499
g1345
F1.1692147031546891
ssS'brnew0.9'
p1500
(dp1501
g1345
F1.158194766524967
ssS'brnew0.0'
p1502
(dp1503
g1345
F1.1697307448992442
ssS'brnew0.1'
p1504
(dp1505
g1345
F1.1706435499533456
ssS'brnew0.2'
p1506
(dp1507
g1345
F1.1715930604113642
ssS'brnew0.3'
p1508
(dp1509
g1345
F1.1725539574758301
ssS'brnew0.4'
p1510
(dp1511
g1345
F1.173402894141475
ssS'brnew0.5'
p1512
(dp1513
g1345
F1.1739837970531655
ssS'brnew0.6'
p1514
(dp1515
g1345
F1.173977966571427
ssS'brnew0.7'
p1516
(dp1517
g1345
F1.1728018131002391
sssS'cprime0.9'
p1518
(dp1519
S'brnew0.8'
p1520
(dp1521
g1345
F0.5698849440408154
ssS'brnew0.9'
p1522
(dp1523
g1345
F0.3795182241369601
ssS'brnew0.0'
p1524
(dp1525
g1345
F1.0019271138500083
ssS'brnew0.1'
p1526
(dp1527
g1345
F0.9830812491976458
ssS'brnew0.2'
p1528
(dp1529
g1345
F0.9601361632018438
ssS'brnew0.3'
p1530
(dp1531
g1345
F0.9316061466500014
ssS'brnew0.4'
p1532
(dp1533
g1345
F0.8953247143384728
ssS'brnew0.5'
p1534
(dp1535
g1345
F0.8479752477297952
ssS'brnew0.6'
p1536
(dp1537
g1345
F0.7843800360908147
ssS'brnew0.7'
p1538
(dp1539
g1345
F0.696231343482752
sssS'cprime0.8'
p1540
(dp1541
S'brnew0.8'
p1542
(dp1543
g1345
F0.6428859943241119
ssS'brnew0.9'
p1544
(dp1545
g1345
F0.43899256353126076
ssS'brnew0.0'
p1546
(dp1547
g1345
F1.0383726614872235
ssS'brnew0.1'
p1548
(dp1549
g1345
F1.0229739772218076
ssS'brnew0.2'
p1550
(dp1551
g1345
F1.004006577947071
ssS'brnew0.3'
p1552
(dp1553
g1345
F0.9801383213483352
ssS'brnew0.4'
p1554
(dp1555
g1345
F0.949329658522906
ssS'brnew0.5'
p1556
(dp1557
g1345
F0.908260573983018
ssS'brnew0.6'
p1558
(dp1559
g1345
F0.8513384292019774
ssS'brnew0.7'
p1560
(dp1561
g1345
F0.7688104973738621
ssssS'550'
p1562
(dp1563
S'cprime1.0'
p1564
(dp1565
S'brnew0.8'
p1566
(dp1567
S'weight'
p1568
F0.6122807186777536
ssS'brnew0.9'
p1569
(dp1570
g1568
F0.443616059450386
ssS'brnew0.0'
p1571
(dp1572
g1568
F0.977732650177431
ssS'brnew0.1'
p1573
(dp1574
g1568
F0.961112650410382
ssS'brnew0.2'
p1575
(dp1576
g1568
F0.9410664453179788
ssS'brnew0.3'
p1577
(dp1578
g1568
F0.916448378137706
ssS'brnew0.4'
p1579
(dp1580
g1568
F0.8855549397753371
ssS'brnew0.5'
p1581
(dp1582
g1568
F0.8456669109349252
ssS'brnew0.6'
p1583
(dp1584
g1568
F0.7925726404252017
ssS'brnew0.7'
p1585
(dp1586
g1568
F0.7191085397579402
sssS'cprime0.7'
p1587
(dp1588
S'brnew0.8'
p1589
(dp1590
g1568
F0.7975463522634978
ssS'brnew0.9'
p1591
(dp1592
g1568
F0.6175591677276041
ssS'brnew0.0'
p1593
(dp1594
g1568
F1.0610821372548238
ssS'brnew0.1'
p1595
(dp1596
g1568
F1.051557481757395
ssS'brnew0.2'
p1597
(dp1598
g1568
F1.039925221463156
ssS'brnew0.3'
p1599
(dp1600
g1568
F1.0252449042527185
ssS'brnew0.4'
p1601
(dp1602
g1568
F1.0062612536222857
ssS'brnew0.5'
p1603
(dp1604
g1568
F0.9807682848016658
ssS'brnew0.6'
p1605
(dp1606
g1568
F0.9446136168524183
ssS'brnew0.7'
p1607
(dp1608
g1568
F0.8897228354358329
sssS'cprime0.6'
p1609
(dp1610
S'brnew0.8'
p1611
(dp1612
g1568
F0.8691313732140437
ssS'brnew0.9'
p1613
(dp1614
g1568
F0.6988816831212794
ssS'brnew0.0'
p1615
(dp1616
g1568
F1.0843919134919668
ssS'brnew0.1'
p1617
(dp1618
g1568
F1.0771371066117144
ssS'brnew0.2'
p1619
(dp1620
g1568
F1.0681517307942199
ssS'brnew0.3'
p1621
(dp1622
g1568
F1.0568147059703124
ssS'brnew0.4'
p1623
(dp1624
g1568
F1.042040272603696
ssS'brnew0.5'
p1625
(dp1626
g1568
F1.021936537760155
ssS'brnew0.6'
p1627
(dp1628
g1568
F0.9931718287689942
ssS'brnew0.7'
p1629
(dp1630
g1568
F0.9481964114375242
sssS'cprime0.5'
p1631
(dp1632
S'brnew0.8'
p1633
(dp1634
g1568
F0.9410664453179788
ssS'brnew0.9'
p1635
(dp1636
g1568
F0.7925726404252017
ssS'brnew0.0'
p1637
(dp1638
g1568
F1.1049019220071992
ssS'brnew0.1'
p1639
(dp1640
g1568
F1.09964786465087
ssS'brnew0.2'
p1641
(dp1642
g1568
F1.093157932268234
ssS'brnew0.3'
p1643
(dp1644
g1568
F1.0849145932628625
ssS'brnew0.4'
p1645
(dp1646
g1568
F1.0741007562487705
ssS'brnew0.5'
p1647
(dp1648
g1568
F1.059304461805501
ssS'brnew0.6'
p1649
(dp1650
g1568
F1.0377747961387507
ssS'brnew0.7'
p1651
(dp1652
g1568
F1.003522376996393
sssS'cprime0.4'
p1653
(dp1654
S'brnew0.8'
p1655
(dp1656
g1568
F1.0089960040742147
ssS'brnew0.9'
p1657
(dp1658
g1568
F0.8939686028548066
ssS'brnew0.0'
p1659
(dp1660
g1568
F1.1222207857877302
ssS'brnew0.1'
p1661
(dp1662
g1568
F1.1187510532704203
ssS'brnew0.2'
p1663
(dp1664
g1568
F1.1144687438858751
ssS'brnew0.3'
p1665
(dp1666
g1568
F1.1089841193220469
ssS'brnew0.4'
p1667
(dp1668
g1568
F1.1017344992923592
ssS'brnew0.5'
p1669
(dp1670
g1568
F1.0917609673020554
ssS'brnew0.6'
p1671
(dp1672
g1568
F1.0771371066117144
ssS'brnew0.7'
p1673
(dp1674
g1568
F1.0534733972543369
sssS'cprime0.3'
p1675
(dp1676
S'brnew0.8'
p1677
(dp1678
g1568
F1.0681517307942199
ssS'brnew0.9'
p1679
(dp1680
g1568
F0.9931718287689942
ssS'brnew0.0'
p1681
(dp1682
g1568
F1.1362128176583774
ssS'brnew0.1'
p1683
(dp1684
g1568
F1.1341538374454512
ssS'brnew0.2'
p1685
(dp1686
g1568
F1.1316265676091648
ssS'brnew0.3'
p1687
(dp1688
g1568
F1.1284109993222458
ssS'brnew0.4'
p1689
(dp1690
g1568
F1.1241778376604428
ssS'brnew0.5'
p1691
(dp1692
g1568
F1.1183210943772506
ssS'brnew0.6'
p1693
(dp1694
g1568
F1.1096630875292415
ssS'brnew0.7'
p1695
(dp1696
g1568
F1.0955007765131528
sssS'cprime0.2'
p1697
(dp1698
S'brnew0.8'
p1699
(dp1700
g1568
F1.1144687438858751
ssS'brnew0.9'
p1701
(dp1702
g1568
F1.0771371066117144
ssS'brnew0.0'
p1703
(dp1704
g1568
F1.1479046585674262
ssS'brnew0.1'
p1705
(dp1706
g1568
F1.1466676679825427
ssS'brnew0.2'
p1707
(dp1708
g1568
F1.1452081813851884
ssS'brnew0.3'
p1709
(dp1710
g1568
F1.1434479761442586
ssS'brnew0.4'
p1711
(dp1712
g1568
F1.1412275940794865
ssS'brnew0.5'
p1713
(dp1714
g1568
F1.1383163784156403
ssS'brnew0.6'
p1715
(dp1716
g1568
F1.1341538374454512
ssS'brnew0.7'
p1717
(dp1718
g1568
F1.1274744576913633
sssS'cprime0.1'
p1719
(dp1720
S'brnew0.8'
p1721
(dp1722
g1568
F1.1452081813851884
ssS'brnew0.9'
p1723
(dp1724
g1568
F1.1341538374454512
ssS'brnew0.0'
p1725
(dp1726
g1568
F1.157733916888519
ssS'brnew0.1'
p1727
(dp1728
g1568
F1.1575367413003992
ssS'brnew0.2'
p1729
(dp1730
g1568
F1.1572285573874246
ssS'brnew0.3'
p1731
(dp1732
g1568
F1.1566759920981735
ssS'brnew0.4'
p1733
(dp1734
g1568
F1.1558709404469003
ssS'brnew0.5'
p1735
(dp1736
g1568
F1.154639076467281
ssS'brnew0.6'
p1737
(dp1738
g1568
F1.15278764746125
ssS'brnew0.7'
p1739
(dp1740
g1568
F1.1499358368334966
sssS'cprime0.9'
p1741
(dp1742
S'brnew0.8'
p1743
(dp1744
g1568
F0.6677548239926392
ssS'brnew0.9'
p1745
(dp1746
g1568
F0.49174488003881567
ssS'brnew0.0'
p1747
(dp1748
g1568
F1.0073012802154444
ssS'brnew0.1'
p1749
(dp1750
g1568
F0.9931718287689942
ssS'brnew0.2'
p1751
(dp1752
g1568
F0.9757960322667812
ssS'brnew0.3'
p1753
(dp1754
g1568
F0.9543800702175647
ssS'brnew0.4'
p1755
(dp1756
g1568
F0.9271182676530725
ssS'brnew0.5'
p1757
(dp1758
g1568
F0.8914205439864112
ssS'brnew0.6'
p1759
(dp1760
g1568
F0.8428137325950609
ssS'brnew0.7'
p1761
(dp1762
g1568
F0.7733576699169125
sssS'cprime0.8'
p1763
(dp1764
S'brnew0.8'
p1765
(dp1766
g1568
F0.7297551774810493
ssS'brnew0.9'
p1767
(dp1768
g1568
F0.5490423462452108
ssS'brnew0.0'
p1769
(dp1770
g1568
F1.035244736805236
ssS'brnew0.1'
p1771
(dp1772
g1568
F1.02341878352426
ssS'brnew0.2'
p1773
(dp1774
g1568
F1.0089960040742147
ssS'brnew0.3'
p1775
(dp1776
g1568
F0.9908844072658017
ssS'brnew0.4'
p1777
(dp1778
g1568
F0.9676947398175064
ssS'brnew0.5'
p1779
(dp1780
g1568
F0.9368372998879758
ssS'brnew0.6'
p1781
(dp1782
g1568
F0.8939686028548066
ssS'brnew0.7'
p1783
(dp1784
g1568
F0.8307580724721954
ssssS'2500'
p1785
(dp1786
S'cprime1.0'
p1787
(dp1788
S'brnew0.8'
p1789
(dp1790
S'weight'
p1791
F0.4961534896884779
ssS'brnew0.9'
p1792
(dp1793
g1791
F0.26447816643187533
ssS'brnew0.0'
p1794
(dp1795
g1791
F1.0065702344336707
ssS'brnew0.1'
p1796
(dp1797
g1791
F1.0064838386675286
ssS'brnew0.2'
p1798
(dp1799
g1791
F0.999656747619664
ssS'brnew0.3'
p1800
(dp1801
g1791
F0.9825609163544914
ssS'brnew0.4'
p1802
(dp1803
g1791
F0.9500576979513068
ssS'brnew0.5'
p1804
(dp1805
g1791
F0.894916556246971
ssS'brnew0.6'
p1806
(dp1807
g1791
F0.8076511886345861
ssS'brnew0.7'
p1808
(dp1809
g1791
F0.6775261849183782
sssS'cprime0.7'
p1810
(dp1811
S'brnew0.8'
p1812
(dp1813
g1791
F0.8162373859631173
ssS'brnew0.9'
p1814
(dp1815
g1791
F0.5045953305431471
ssS'brnew0.0'
p1816
(dp1817
g1791
F0.913072297478905
ssS'brnew0.1'
p1818
(dp1819
g1791
F0.932475931059347
ssS'brnew0.2'
p1820
(dp1821
g1791
F0.9530827326401771
ssS'brnew0.3'
p1822
(dp1823
g1791
F0.9740393607657162
ssS'brnew0.4'
p1824
(dp1825
g1791
F0.9932690292374937
ssS'brnew0.5'
p1826
(dp1827
g1791
F1.00599073868979
ssS'brnew0.6'
p1828
(dp1829
g1791
F1.0013621075937276
ssS'brnew0.7'
p1830
(dp1831
g1791
F0.9550868982922954
sssS'cprime0.6'
p1832
(dp1833
S'brnew0.8'
p1834
(dp1835
g1791
F0.9288598821621092
ssS'brnew0.9'
p1836
(dp1837
g1791
F0.6418217831043348
ssS'brnew0.0'
p1838
(dp1839
g1791
F0.8554357212719526
ssS'brnew0.1'
p1840
(dp1841
g1791
F0.8749317201363533
ssS'brnew0.2'
p1842
(dp1843
g1791
F0.8970782818669384
ssS'brnew0.3'
p1844
(dp1845
g1791
F0.9220578560934083
ssS'brnew0.4'
p1846
(dp1847
g1791
F0.9495909083333366
ssS'brnew0.5'
p1848
(dp1849
g1791
F0.978011542808624
ssS'brnew0.6'
p1850
(dp1851
g1791
F1.0016332277415105
ssS'brnew0.7'
p1852
(dp1853
g1791
F1.002870929810757
sssS'cprime0.5'
p1854
(dp1855
S'brnew0.8'
p1856
(dp1857
g1791
F0.999656747619664
ssS'brnew0.9'
p1858
(dp1859
g1791
F0.8076511886345861
ssS'brnew0.0'
p1860
(dp1861
g1791
F0.7933277697111638
ssS'brnew0.1'
p1862
(dp1863
g1791
F0.8102127713910622
ssS'brnew0.2'
p1864
(dp1865
g1791
F0.8301686128014794
ssS'brnew0.3'
p1866
(dp1867
g1791
F0.85398132290223
ssS'brnew0.4'
p1868
(dp1869
g1791
F0.8825848479747488
ssS'brnew0.5'
p1870
(dp1871
g1791
F0.9168373400221311
ssS'brnew0.6'
p1872
(dp1873
g1791
F0.9564466974736084
ssS'brnew0.7'
p1874
(dp1875
g1791
F0.9952772736589414
sssS'cprime0.4'
p1876
(dp1877
S'brnew0.8'
p1878
(dp1879
g1791
F0.9910842896972151
ssS'brnew0.9'
p1880
(dp1881
g1791
F0.9599838547298929
ssS'brnew0.0'
p1882
(dp1883
g1791
F0.7328872524328963
ssS'brnew0.1'
p1884
(dp1885
g1791
F0.7455295862734979
ssS'brnew0.2'
p1886
(dp1887
g1791
F0.7608427548747047
ssS'brnew0.3'
p1888
(dp1889
g1791
F0.7797371567524416
ssS'brnew0.4'
p1890
(dp1891
g1791
F0.8035575627534326
ssS'brnew0.5'
p1892
(dp1893
g1791
F0.8343131326944173
ssS'brnew0.6'
p1894
(dp1895
g1791
F0.8749317201363533
ssS'brnew0.7'
p1896
(dp1897
g1791
F0.9287321651541842
sssS'cprime0.3'
p1898
(dp1899
S'brnew0.8'
p1900
(dp1901
g1791
F0.8970782818669384
ssS'brnew0.9'
p1902
(dp1903
g1791
F1.0016332277415105
ssS'brnew0.0'
p1904
(dp1905
g1791
F0.6796359852537799
ssS'brnew0.1'
p1906
(dp1907
g1791
F0.6875919877372548
ssS'brnew0.2'
p1908
(dp1909
g1791
F0.6973690246559456
ssS'brnew0.3'
p1910
(dp1911
g1791
F0.7096727197251846
ssS'brnew0.4'
p1912
(dp1913
g1791
F0.7256210365625848
ssS'brnew0.5'
p1914
(dp1915
g1791
F0.74708536315019
ssS'brnew0.6'
p1916
(dp1917
g1791
F0.7774237335934377
ssS'brnew0.7'
p1918
(dp1919
g1791
F0.823130624271834
sssS'cprime0.2'
p1920
(dp1921
S'brnew0.8'
p1922
(dp1923
g1791
F0.7608427548747047
ssS'brnew0.9'
p1924
(dp1925
g1791
F0.8749317201363533
ssS'brnew0.0'
p1926
(dp1927
g1791
F0.6378550487002972
ssS'brnew0.1'
p1928
(dp1929
g1791
F0.6417261029900954
ssS'brnew0.2'
p1930
(dp1931
g1791
F0.6465149749031732
ssS'brnew0.3'
p1932
(dp1933
g1791
F0.6525969410039086
ssS'brnew0.4'
p1934
(dp1935
g1791
F0.660585302966694
ssS'brnew0.5'
p1936
(dp1937
g1791
F0.6715577900359413
ssS'brnew0.6'
p1938
(dp1939
g1791
F0.6875919877372548
ssS'brnew0.7'
p1940
(dp1941
g1791
F0.7132619076391525
sssS'cprime0.1'
p1942
(dp1943
S'brnew0.8'
p1944
(dp1945
g1791
F0.6465149749031732
ssS'brnew0.9'
p1946
(dp1947
g1791
F0.6875919877372548
ssS'brnew0.0'
p1948
(dp1949
g1791
F0.6108884922340799
ssS'brnew0.1'
p1950
(dp1951
g1791
F0.6119471007648482
ssS'brnew0.2'
p1952
(dp1953
g1791
F0.6132323628799353
ssS'brnew0.3'
p1954
(dp1955
g1791
F0.6148559239083096
ssS'brnew0.4'
p1956
(dp1957
g1791
F0.6170043503299601
ssS'brnew0.5'
p1958
(dp1959
g1791
F0.6200116977341144
ssS'brnew0.6'
p1960
(dp1961
g1791
F0.6245230816710903
ssS'brnew0.7'
p1962
(dp1963
g1791
F0.6319795770672383
sssS'cprime0.9'
p1964
(dp1965
S'brnew0.8'
p1966
(dp1967
g1791
F0.5878820602262668
ssS'brnew0.9'
p1968
(dp1969
g1791
F0.3227195220270521
ssS'brnew0.0'
p1970
(dp1971
g1791
F0.9924164256589123
ssS'brnew0.1'
p1972
(dp1973
g1791
F1.0016332277415105
ssS'brnew0.2'
p1974
(dp1975
g1791
F1.0068348309819317
ssS'brnew0.3'
p1976
(dp1977
g1791
F1.0049687262129392
ssS'brnew0.4'
p1978
(dp1979
g1791
F0.991052245584636
ssS'brnew0.5'
p1980
(dp1981
g1791
F0.9570622252542242
ssS'brnew0.6'
p1982
(dp1983
g1791
F0.8905680566710519
ssS'brnew0.7'
p1984
(dp1985
g1791
F0.7740356761580732
sssS'cprime0.8'
p1986
(dp1987
S'brnew0.8'
p1988
(dp1989
g1791
F0.6964777853959956
ssS'brnew0.9'
p1990
(dp1991
g1791
F0.4003863673630343
ssS'brnew0.0'
p1992
(dp1993
g1791
F0.9603171675071436
ssS'brnew0.1'
p1994
(dp1995
g1791
F0.9762822371125823
ssS'brnew0.2'
p1996
(dp1997
g1791
F0.9910842896972151
ssS'brnew0.3'
p1998
(dp1999
g1791
F1.0026619776258507
ssS'brnew0.4'
p2000
(dp2001
g1791
F1.0071570221814703
ssS'brnew0.5'
p2002
(dp2003
g1791
F0.9973633410145041
ssS'brnew0.6'
p2004
(dp2005
g1791
F0.9599838547298929
ssS'brnew0.7'
p2006
(dp2007
g1791
F0.871595893559301
ssssS'450'
p2008
(dp2009
S'cprime1.0'
p2010
(dp2011
S'brnew0.8'
p2012
(dp2013
S'weight'
p2014
F0.7224585930111759
ssS'brnew0.9'
p2015
(dp2016
g2014
F0.5830245349367693
ssS'brnew0.0'
p2017
(dp2018
g2014
F0.986645092809805
ssS'brnew0.1'
p2019
(dp2020
g2014
F0.9749715384486498
ssS'brnew0.2'
p2021
(dp2022
g2014
F0.9609202708864953
ssS'brnew0.3'
p2023
(dp2024
g2014
F0.9436464797658578
ssS'brnew0.4'
p2025
(dp2026
g2014
F0.9218570706821844
ssS'brnew0.5'
p2027
(dp2028
g2014
F0.8937021437384114
ssS'brnew0.6'
p2029
(dp2030
g2014
F0.8559732706146279
ssS'brnew0.7'
p2031
(dp2032
g2014
F0.8028203067045384
sssS'cprime0.7'
p2033
(dp2034
S'brnew0.8'
p2035
(dp2036
g2014
F0.8595415332190334
ssS'brnew0.9'
p2037
(dp2038
g2014
F0.7265510259108552
ssS'brnew0.0'
p2039
(dp2040
g2014
F1.0456644112507725
ssS'brnew0.1'
p2041
(dp2042
g2014
F1.0388928897715697
ssS'brnew0.2'
p2043
(dp2044
g2014
F1.0306365140265359
ssS'brnew0.3'
p2045
(dp2046
g2014
F1.0202066596427681
ssS'brnew0.4'
p2047
(dp2048
g2014
F1.0068958705451883
ssS'brnew0.5'
p2049
(dp2050
g2014
F0.9888700342154035
ssS'brnew0.6'
p2051
(dp2052
g2014
F0.9634395455730651
ssS'brnew0.7'
p2053
(dp2054
g2014
F0.924836085866247
sssS'cprime0.6'
p2055
(dp2056
S'brnew0.8'
p2057
(dp2058
g2014
F0.9102948317677276
ssS'brnew0.9'
p2059
(dp2060
g2014
F0.7879373727478058
ssS'brnew0.0'
p2061
(dp2062
g2014
F1.062300217449194
ssS'brnew0.1'
p2063
(dp2064
g2014
F1.0570714412353004
ssS'brnew0.2'
p2065
(dp2066
g2014
F1.0507194378235618
ssS'brnew0.3'
p2067
(dp2068
g2014
F1.042609532115352
ssS'brnew0.4'
p2069
(dp2070
g2014
F1.0321400963981147
ssS'brnew0.5'
p2071
(dp2072
g2014
F1.0179484002901953
ssS'brnew0.6'
p2073
(dp2074
g2014
F0.9975207611689785
ssS'brnew0.7'
p2075
(dp2076
g2014
F0.9659686610761298
sssS'cprime0.5'
p2077
(dp2078
S'brnew0.8'
p2079
(dp2080
g2014
F0.9609202708864953
ssS'brnew0.9'
p2081
(dp2082
g2014
F0.8559732706146279
ssS'brnew0.0'
p2083
(dp2084
g2014
F1.076996141143882
ssS'brnew0.1'
p2085
(dp2086
g2014
F1.0732106968141046
ssS'brnew0.2'
p2087
(dp2088
g2014
F1.068574337820298
ssS'brnew0.3'
p2089
(dp2090
g2014
F1.062655045669297
ssS'brnew0.4'
p2091
(dp2092
g2014
F1.0549694929958575
ssS'brnew0.5'
p2093
(dp2094
g2014
F1.0443952939388188
ssS'brnew0.6'
p2095
(dp2096
g2014
F1.0291735514901652
ssS'brnew0.7'
p2097
(dp2098
g2014
F1.0049223766195632
sssS'cprime0.4'
p2099
(dp2100
S'brnew0.8'
p2101
(dp2102
g2014
F1.0086576517804253
ssS'brnew0.9'
p2103
(dp2104
g2014
F0.9277825120407618
ssS'brnew0.0'
p2105
(dp2106
g2014
F1.0894678669693274
ssS'brnew0.1'
p2107
(dp2108
g2014
F1.0869732364976767
ssS'brnew0.2'
p2109
(dp2110
g2014
F1.083867117432803
ssS'brnew0.3'
p2111
(dp2112
g2014
F1.0799261982320008
ssS'brnew0.4'
p2113
(dp2114
g2014
F1.0747270285173427
ssS'brnew0.5'
p2115
(dp2116
g2014
F1.0675659935236768
ssS'brnew0.6'
p2117
(dp2118
g2014
F1.0570714412353004
ssS'brnew0.7'
p2119
(dp2120
g2014
F1.0402531684789917
sssS'cprime0.3'
p2121
(dp2122
S'brnew0.8'
p2123
(dp2124
g2014
F1.0507194378235618
ssS'brnew0.9'
p2125
(dp2126
g2014
F0.9975207611689785
ssS'brnew0.0'
p2127
(dp2128
g2014
F1.0994951758211802
ssS'brnew0.1'
p2129
(dp2130
g2014
F1.0980338868436965
ssS'brnew0.2'
p2131
(dp2132
g2014
F1.0962092403408947
ssS'brnew0.3'
p2133
(dp2134
g2014
F1.0939166844651433
ssS'brnew0.4'
p2135
(dp2136
g2014
F1.0908765123349928
ssS'brnew0.5'
p2137
(dp2138
g2014
F1.0866494088289296
ssS'brnew0.6'
p2139
(dp2140
g2014
F1.080407044562642
ssS'brnew0.7'
p2141
(dp2142
g2014
F1.0702299009027028
sssS'cprime0.2'
p2143
(dp2144
S'brnew0.8'
p2145
(dp2146
g2014
F1.083867117432803
ssS'brnew0.9'
p2147
(dp2148
g2014
F1.0570714412353004
ssS'brnew0.0'
p2149
(dp2150
g2014
F1.1074314753890813
ssS'brnew0.1'
p2151
(dp2152
g2014
F1.106706142837391
ssS'brnew0.2'
p2153
(dp2154
g2014
F1.1057168264947252
ssS'brnew0.3'
p2155
(dp2156
g2014
F1.1045400815158968
ssS'brnew0.4'
p2157
(dp2158
g2014
F1.103029002469655
ssS'brnew0.5'
p2159
(dp2160
g2014
F1.1009931166416493
ssS'brnew0.6'
p2161
(dp2162
g2014
F1.0980338868436965
ssS'brnew0.7'
p2163
(dp2164
g2014
F1.0932443592681467
sssS'cprime0.1'
p2165
(dp2166
S'brnew0.8'
p2167
(dp2168
g2014
F1.1057168264947252
ssS'brnew0.9'
p2169
(dp2170
g2014
F1.0980338868436965
ssS'brnew0.0'
p2171
(dp2172
g2014
F1.1117726642665318
ssS'brnew0.1'
p2173
(dp2174
g2014
F1.1116808944972207
ssS'brnew0.2'
p2175
(dp2176
g2014
F1.1115997066103092
ssS'brnew0.3'
p2177
(dp2178
g2014
F1.1112762528425906
ssS'brnew0.4'
p2179
(dp2180
g2014
F1.1109228360627779
ssS'brnew0.5'
p2181
(dp2182
g2014
F1.110678117538578
ssS'brnew0.6'
p2183
(dp2184
g2014
F1.10990261131846
ssS'brnew0.7'
p2185
(dp2186
g2014
F1.1085648842870262
sssS'cprime0.9'
p2187
(dp2188
S'brnew0.8'
p2189
(dp2190
g2014
F0.7647643755558586
ssS'brnew0.9'
p2191
(dp2192
g2014
F0.6248622425107545
ssS'brnew0.0'
p2193
(dp2194
g2014
F1.0075532747548726
ssS'brnew0.1'
p2195
(dp2196
g2014
F0.9975207611689785
ssS'brnew0.2'
p2197
(dp2198
g2014
F0.9853529805325137
ssS'brnew0.3'
p2199
(dp2200
g2014
F0.970241894083609
ssS'brnew0.4'
p2201
(dp2202
g2014
F0.9510912175524943
ssS'brnew0.5'
p2203
(dp2204
g2014
F0.9260006671677491
ssS'brnew0.6'
p2205
(dp2206
g2014
F0.8917238351003631
ssS'brnew0.7'
p2207
(dp2208
g2014
F0.8421884384670641
sssS'cprime0.8'
p2209
(dp2210
S'brnew0.8'
p2211
(dp2212
g2014
F0.8106084275149643
ssS'brnew0.9'
p2213
(dp2214
g2014
F0.6723730849432088
ssS'brnew0.0'
p2215
(dp2216
g2014
F1.0273631970249752
ssS'brnew0.1'
p2217
(dp2218
g2014
F1.0189936513008586
ssS'brnew0.2'
p2219
(dp2220
g2014
F1.0086576517804253
ssS'brnew0.3'
p2221
(dp2222
g2014
F0.9959679136614151
ssS'brnew0.4'
p2223
(dp2224
g2014
F0.9796214814148416
ssS'brnew0.5'
p2225
(dp2226
g2014
F0.9579749559698559
ssS'brnew0.6'
p2227
(dp2228
g2014
F0.9277825120407618
ssS'brnew0.7'
p2229
(dp2230
g2014
F0.8831699480561921
ssssS'2000'
p2231
(dp2232
S'cprime0.5'
p2233
(dp2234
S'brnew0.8'
p2235
(dp2236
S'weight'
p2237
F0.9616417412337294
ssS'brnew0.9'
p2238
(dp2239
g2237
F0.7238676156883168
ssS'brnew0.0'
p2240
(dp2241
g2237
F0.977478500026562
ssS'brnew0.1'
p2242
(dp2243
g2237
F0.9844058431792708
ssS'brnew0.2'
p2244
(dp2245
g2237
F0.992204844345322
ssS'brnew0.3'
p2246
(dp2247
g2237
F1.0008789941292198
ssS'brnew0.4'
p2248
(dp2249
g2237
F1.010192620258757
ssS'brnew0.5'
p2250
(dp2251
g2237
F1.0192122866343665
ssS'brnew0.6'
p2252
(dp2253
g2237
F1.0249080413052765
ssS'brnew0.7'
p2254
(dp2255
g2237
F1.017410953410173
sssS'cprime0.7'
p2256
(dp2257
S'brnew0.8'
p2258
(dp2259
g2237
F0.7325606089128038
ssS'brnew0.9'
p2260
(dp2261
g2237
F0.4405172235655786
ssS'brnew0.0'
p2262
(dp2263
g2237
F1.0183640182059335
ssS'brnew0.1'
p2264
(dp2265
g2237
F1.022251405540048
ssS'brnew0.2'
p2266
(dp2267
g2237
F1.0247238321212269
ssS'brnew0.3'
p2268
(dp2269
g2237
F1.0243946919900295
ssS'brnew0.4'
p2270
(dp2271
g2237
F1.0186626012991944
ssS'brnew0.5'
p2272
(dp2273
g2237
F1.0025095617186721
ssS'brnew0.6'
p2274
(dp2275
g2237
F0.9659487021392404
ssS'brnew0.7'
p2276
(dp2277
g2237
F0.8888476811195969
sssS'cprime0.6'
p2278
(dp2279
S'brnew0.8'
p2280
(dp2281
g2237
F0.8556075341021572
ssS'brnew0.9'
p2282
(dp2283
g2237
F0.5648367440299847
ssS'brnew0.0'
p2284
(dp2285
g2237
F1.0013834465784464
ssS'brnew0.1'
p2286
(dp2287
g2237
F1.0078360454333157
ssS'brnew0.2'
p2288
(dp2289
g2237
F1.0143418233299075
ssS'brnew0.3'
p2290
(dp2291
g2237
F1.0203171397345596
ssS'brnew0.4'
p2292
(dp2293
g2237
F1.0244578418313393
ssS'brnew0.5'
p2294
(dp2295
g2237
F1.0238143873429708
ssS'brnew0.6'
p2296
(dp2297
g2237
F1.0114542334188767
ssS'brnew0.7'
p2298
(dp2299
g2237
F0.9701694358516215
sssS'cprime1.0'
p2300
(dp2301
S'brnew0.8'
p2302
(dp2303
g2237
F0.4329930387641397
ssS'brnew0.9'
p2304
(dp2305
g2237
F0.22957609906766294
ssS'brnew0.0'
p2306
(dp2307
g2237
F1.0
ssS'brnew0.1'
p2308
(dp2309
g2237
F0.9843800979916436
ssS'brnew0.2'
p2310
(dp2311
g2237
F0.9616417412337294
ssS'brnew0.3'
p2312
(dp2313
g2237
F0.9289167863226773
ssS'brnew0.4'
p2314
(dp2315
g2237
F0.8822101818426829
ssS'brnew0.5'
p2316
(dp2317
g2237
F0.8161278699417773
ssS'brnew0.6'
p2318
(dp2319
g2237
F0.7238676156883168
ssS'brnew0.7'
p2320
(dp2321
g2237
F0.5980135164241999
sssS'cprime0.4'
p2322
(dp2323
S'brnew0.8'
p2324
(dp2325
g2237
F1.019812514440412
ssS'brnew0.9'
p2326
(dp2327
g2237
F0.8954666593172519
ssS'brnew0.0'
p2328
(dp2329
g2237
F0.9505783402473512
ssS'brnew0.1'
p2330
(dp2331
g2237
F0.9564559219670635
ssS'brnew0.2'
p2332
(dp2333
g2237
F0.9634023942228082
ssS'brnew0.3'
p2334
(dp2335
g2237
F0.971703433050126
ssS'brnew0.4'
p2336
(dp2337
g2237
F0.9817098929699121
ssS'brnew0.5'
p2338
(dp2339
g2237
F0.9937671705124226
ssS'brnew0.6'
p2340
(dp2341
g2237
F1.0078360454333157
ssS'brnew0.7'
p2342
(dp2343
g2237
F1.0216009035285898
sssS'cprime0.3'
p2344
(dp2345
S'brnew0.8'
p2346
(dp2347
g2237
F1.0143418233299075
ssS'brnew0.9'
p2348
(dp2349
g2237
F1.0114542334188767
ssS'brnew0.0'
p2350
(dp2351
g2237
F0.9244365176887658
ssS'brnew0.1'
p2352
(dp2353
g2237
F0.9284869529701226
ssS'brnew0.2'
p2354
(dp2355
g2237
F0.9333940904631268
ssS'brnew0.3'
p2356
(dp2357
g2237
F0.9394595225815089
ssS'brnew0.4'
p2358
(dp2359
g2237
F0.9471436194512981
ssS'brnew0.5'
p2360
(dp2361
g2237
F0.9571698916704036
ssS'brnew0.6'
p2362
(dp2363
g2237
F0.9707035376261276
ssS'brnew0.7'
p2364
(dp2365
g2237
F0.9895057578083644
sssS'cprime0.2'
p2366
(dp2367
S'brnew0.8'
p2368
(dp2369
g2237
F0.9634023942228082
ssS'brnew0.9'
p2370
(dp2371
g2237
F1.0078360454333157
ssS'brnew0.0'
p2372
(dp2373
g2237
F0.9024669267678243
ssS'brnew0.1'
p2374
(dp2375
g2237
F0.9045203688548414
ssS'brnew0.2'
p2376
(dp2377
g2237
F0.9070702651687981
ssS'brnew0.3'
p2378
(dp2379
g2237
F0.9103058911612003
ssS'brnew0.4'
p2380
(dp2381
g2237
F0.9145339567449454
ssS'brnew0.5'
p2382
(dp2383
g2237
F0.9202715389409526
ssS'brnew0.6'
p2384
(dp2385
g2237
F0.9284869529701226
ssS'brnew0.7'
p2386
(dp2387
g2237
F0.94120658424935
sssS'cprime0.1'
p2388
(dp2389
S'brnew0.8'
p2390
(dp2391
g2237
F0.9070702651687981
ssS'brnew0.9'
p2392
(dp2393
g2237
F0.9284869529701226
ssS'brnew0.0'
p2394
(dp2395
g2237
F0.8901816450391626
ssS'brnew0.1'
p2396
(dp2397
g2237
F0.8904060335335794
ssS'brnew0.2'
p2398
(dp2399
g2237
F0.8907493431744777
ssS'brnew0.3'
p2400
(dp2401
g2237
F0.8912800535251748
ssS'brnew0.4'
p2402
(dp2403
g2237
F0.8921089584804772
ssS'brnew0.5'
p2404
(dp2405
g2237
F0.8934250683624649
ssS'brnew0.6'
p2406
(dp2407
g2237
F0.8955817819833876
ssS'brnew0.7'
p2408
(dp2409
g2237
F0.8993792355328168
sssS'cprime0.9'
p2410
(dp2411
S'brnew0.8'
p2412
(dp2413
g2237
F0.5154503133443051
ssS'brnew0.9'
p2414
(dp2415
g2237
F0.28031942129598747
ssS'brnew0.0'
p2416
(dp2417
g2237
F1.0191342037463906
ssS'brnew0.1'
p2418
(dp2419
g2237
F1.0114542334188767
ssS'brnew0.2'
p2420
(dp2421
g2237
F0.9983829840656053
ssS'brnew0.3'
p2422
(dp2423
g2237
F0.9771865608981545
ssS'brnew0.4'
p2424
(dp2425
g2237
F0.9436812996323598
ssS'brnew0.5'
p2426
(dp2427
g2237
F0.8914980276922241
ssS'brnew0.6'
p2428
(dp2429
g2237
F0.8112672203788258
ssS'brnew0.7'
p2430
(dp2431
g2237
F0.6903982374387858
sssS'cprime0.8'
p2432
(dp2433
S'brnew0.8'
p2434
(dp2435
g2237
F0.6158119408256347
ssS'brnew0.9'
p2436
(dp2437
g2237
F0.3483166985728849
ssS'brnew0.0'
p2438
(dp2439
g2237
F1.0250246943567334
ssS'brnew0.1'
p2440
(dp2441
g2237
F1.024094121802663
ssS'brnew0.2'
p2442
(dp2443
g2237
F1.019812514440412
ssS'brnew0.3'
p2444
(dp2445
g2237
F1.0099931886194173
ssS'brnew0.4'
p2446
(dp2447
g2237
F0.9909472646020574
ssS'brnew0.5'
p2448
(dp2449
g2237
F0.9563694850719494
ssS'brnew0.6'
p2450
(dp2451
g2237
F0.8954666593172519
ssS'brnew0.7'
p2452
(dp2453
g2237
F0.790459058056866
ssssS'4000'
p2454
(dp2455
S'cprime1.0'
p2456
(dp2457
S'brnew0.0'
p2458
(dp2459
S'weight'
p2460
F1.3812482873965664
ssssS'3000'
p2461
(dp2462
S'cprime0.5'
p2463
(dp2464
S'brnew0.8'
p2465
(dp2466
S'weight'
p2467
F1.1039609849594787
ssS'brnew0.9'
p2468
(dp2469
g2467
F0.954530774454838
ssS'brnew0.0'
p2470
(dp2471
g2467
F0.6740616103116397
ssS'brnew0.1'
p2472
(dp2473
g2467
F0.7002326123212272
ssS'brnew0.2'
p2474
(dp2475
g2467
F0.7316333139055031
ssS'brnew0.3'
p2476
(dp2477
g2467
F0.7698583948834611
ssS'brnew0.4'
p2478
(dp2479
g2467
F0.8170805149553795
ssS'brnew0.5'
p2480
(dp2481
g2467
F0.8761072143550541
ssS'brnew0.6'
p2482
(dp2483
g2467
F0.9497307383161712
ssS'brnew0.7'
p2484
(dp2485
g2467
F1.0362449155080504
sssS'cprime0.7'
p2486
(dp2487
S'brnew0.8'
p2488
(dp2489
g2467
F0.9633889837757587
ssS'brnew0.9'
p2490
(dp2491
g2467
F0.612943236766561
ssS'brnew0.0'
p2492
(dp2493
g2467
F0.869453929225002
ssS'brnew0.1'
p2494
(dp2495
g2467
F0.9042885201982833
ssS'brnew0.2'
p2496
(dp2497
g2467
F0.943143850089447
ssS'brnew0.3'
p2498
(dp2499
g2467
F0.9858024092020009
ssS'brnew0.4'
p2500
(dp2501
g2467
F1.0308394345177792
ssS'brnew0.5'
p2502
(dp2503
g2467
F1.0738216615335308
ssS'brnew0.6'
p2504
(dp2505
g2467
F1.1029239651925502
ssS'brnew0.7'
p2506
(dp2507
g2467
F1.0885885081126645
sssS'cprime0.6'
p2508
(dp2509
S'brnew0.8'
p2510
(dp2511
g2467
F1.069129237434373
ssS'brnew0.9'
p2512
(dp2513
g2467
F0.7726838017934782
ssS'brnew0.0'
p2514
(dp2515
g2467
F0.7722225652101359
ssS'brnew0.1'
p2516
(dp2517
g2467
F0.8042876032700461
ssS'brnew0.2'
p2518
(dp2519
g2467
F0.8416732372095594
ssS'brnew0.3'
p2520
(dp2521
g2467
F0.8854119994884845
ssS'brnew0.4'
p2522
(dp2523
g2467
F0.9363888578799463
ssS'brnew0.5'
p2524
(dp2525
g2467
F0.9944531029411261
ssS'brnew0.6'
p2526
(dp2527
g2467
F1.055476504781362
ssS'brnew0.7'
p2528
(dp2529
g2467
F1.101569085454321
sssS'cprime1.0'
p2530
(dp2531
S'brnew0.8'
p2532
(dp2533
g2467
F0.6029481547642274
ssS'brnew0.9'
p2534
(dp2535
g2467
F0.32397015026508225
ssS'brnew0.0'
p2536
(dp2537
g2467
F1.0776561920252397
ssS'brnew0.1'
p2538
(dp2539
g2467
F1.0939788058029098
ssS'brnew0.2'
p2540
(dp2541
g2467
F1.1039609849594787
ssS'brnew0.3'
p2542
(dp2543
g2467
F1.1032311268200026
ssS'brnew0.4'
p2544
(dp2545
g2467
F1.0851484698510312
ssS'brnew0.5'
p2546
(dp2547
g2467
F1.039995312251186
ssS'brnew0.6'
p2548
(dp2549
g2467
F0.954530774454838
ssS'brnew0.7'
p2550
(dp2551
g2467
F0.8131582957149269
sssS'cprime0.4'
p2552
(dp2553
S'brnew0.8'
p2554
(dp2555
g2467
F1.0251858938366634
ssS'brnew0.9'
p2556
(dp2557
g2467
F1.0917678468462495
ssS'brnew0.0'
p2558
(dp2559
g2467
F0.5829371671632102
ssS'brnew0.1'
p2560
(dp2561
g2467
F0.6016924299335696
ssS'brnew0.2'
p2562
(dp2563
g2467
F0.6246188825486366
ssS'brnew0.3'
p2564
(dp2565
g2467
F0.6532377204198602
ssS'brnew0.4'
p2566
(dp2567
g2467
F0.6898760883923755
ssS'brnew0.5'
p2568
(dp2569
g2467
F0.738224059393703
ssS'brnew0.6'
p2570
(dp2571
g2467
F0.8042876032700461
ssS'brnew0.7'
p2572
(dp2573
g2467
F0.897454298895917
sssS'cprime0.3'
p2574
(dp2575
S'brnew0.8'
p2576
(dp2577
g2467
F0.8416732372095594
ssS'brnew0.9'
p2578
(dp2579
g2467
F1.055476504781362
ssS'brnew0.0'
p2580
(dp2581
g2467
F0.5056760855139467
ssS'brnew0.1'
p2582
(dp2583
g2467
F0.5170267428462557
ssS'brnew0.2'
p2584
(dp2585
g2467
F0.5310764128734448
ssS'brnew0.3'
p2586
(dp2587
g2467
F0.5489008244785631
ssS'brnew0.4'
p2588
(dp2589
g2467
F0.5722279568385116
ssS'brnew0.5'
p2590
(dp2591
g2467
F0.6040112525801965
ssS'brnew0.6'
p2592
(dp2593
g2467
F0.6497136654820825
ssS'brnew0.7'
p2594
(dp2595
g2467
F0.7204974316036443
sssS'cprime0.2'
p2596
(dp2597
S'brnew0.8'
p2598
(dp2599
g2467
F0.6246188825486366
ssS'brnew0.9'
p2600
(dp2601
g2467
F0.8042876032700461
ssS'brnew0.0'
p2602
(dp2603
g2467
F0.447903917239582
ssS'brnew0.1'
p2604
(dp2605
g2467
F0.45305472630738824
ssS'brnew0.2'
p2606
(dp2607
g2467
F0.4595075978737573
ssS'brnew0.3'
p2608
(dp2609
g2467
F0.46780923010716186
ssS'brnew0.4'
p2610
(dp2611
g2467
F0.4788567537486607
ssS'brnew0.5'
p2612
(dp2613
g2467
F0.49423430023322135
ssS'brnew0.6'
p2614
(dp2615
g2467
F0.5170267428462557
ssS'brnew0.7'
p2616
(dp2617
g2467
F0.5541286444122783
sssS'cprime0.1'
p2618
(dp2619
S'brnew0.8'
p2620
(dp2621
g2467
F0.4595075978737573
ssS'brnew0.9'
p2622
(dp2623
g2467
F0.5170267428462557
ssS'brnew0.0'
p2624
(dp2625
g2467
F0.41368036425673743
ssS'brnew0.1'
p2626
(dp2627
g2467
F0.41504580615162195
ssS'brnew0.2'
p2628
(dp2629
g2467
F0.41668852007742724
ssS'brnew0.3'
p2630
(dp2631
g2467
F0.41873660325987294
ssS'brnew0.4'
p2632
(dp2633
g2467
F0.42141244878206313
ssS'brnew0.5'
p2634
(dp2635
g2467
F0.42512960306514486
ssS'brnew0.6'
p2636
(dp2637
g2467
F0.43073439908149763
ssS'brnew0.7'
p2638
(dp2639
g2467
F0.44021915776398746
sssS'cprime0.9'
p2640
(dp2641
S'brnew0.8'
p2642
(dp2643
g2467
F0.7105878371787839
ssS'brnew0.9'
p2644
(dp2645
g2467
F0.3947625228075102
ssS'brnew0.0'
p2646
(dp2647
g2467
F1.0286078630714925
ssS'brnew0.1'
p2648
(dp2649
g2467
F1.055476504781362
ssS'brnew0.2'
p2650
(dp2651
g2467
F1.0799075040820112
ssS'brnew0.3'
p2652
(dp2653
g2467
F1.0984693237711496
ssS'brnew0.4'
p2654
(dp2655
g2467
F1.1051863471336485
ssS'brnew0.5'
p2656
(dp2657
g2467
F1.0898926739729653
ssS'brnew0.6'
p2658
(dp2659
g2467
F1.0360403097215458
ssS'brnew0.7'
p2660
(dp2661
g2467
F0.9191753948624276
sssS'cprime0.8'
p2662
(dp2663
S'brnew0.8'
p2664
(dp2665
g2467
F0.8344025816208221
ssS'brnew0.9'
p2666
(dp2667
g2467
F0.4885728739971635
ssS'brnew0.0'
p2668
(dp2669
g2467
F0.9574142383348965
ssS'brnew0.1'
p2670
(dp2671
g2467
F0.9906571973222169
ssS'brnew0.2'
p2672
(dp2673
g2467
F1.0251858938366634
ssS'brnew0.3'
p2674
(dp2675
g2467
F1.0591184525299278
ssS'brnew0.4'
p2676
(dp2677
g2467
F1.0884218354568542
ssS'brnew0.5'
p2678
(dp2679
g2467
F1.1048045867331868
ssS'brnew0.6'
p2680
(dp2681
g2467
F1.0917678468462495
ssS'brnew0.7'
p2682
(dp2683
g2467
F1.0183293157857092
ssssS'650'
p2684
(dp2685
S'cprime1.0'
p2686
(dp2687
S'brnew0.8'
p2688
(dp2689
S'weight'
p2690
F0.540736274152661
ssS'brnew0.9'
p2691
(dp2692
g2690
F0.366207465405263
ssS'brnew0.0'
p2693
(dp2694
g2690
F0.968392959759082
ssS'brnew0.1'
p2695
(dp2696
g2690
F0.9480248146935324
ssS'brnew0.2'
p2697
(dp2698
g2690
F0.9234704119860736
ssS'brnew0.3'
p2699
(dp2700
g2690
F0.8932971921981179
ssS'brnew0.4'
p2701
(dp2702
g2690
F0.8555466259369713
ssS'brnew0.5'
p2703
(dp2704
g2690
F0.8072891600789074
ssS'brnew0.6'
p2705
(dp2706
g2690
F0.744053250907135
ssS'brnew0.7'
p2707
(dp2708
g2690
F0.6589318350744012
sssS'cprime0.7'
p2709
(dp2710
S'brnew0.8'
p2711
(dp2712
g2690
F0.7499154181428072
ssS'brnew0.9'
p2713
(dp2714
g2690
F0.546422635550802
ssS'brnew0.0'
p2715
(dp2716
g2690
F1.0692766103898395
ssS'brnew0.1'
p2717
(dp2718
g2690
F1.0579836892184984
ssS'brnew0.2'
p2719
(dp2720
g2690
F1.0439998035310392
ssS'brnew0.3'
p2721
(dp2722
g2690
F1.0263333885838481
ssS'brnew0.4'
p2723
(dp2724
g2690
F1.0032748964986176
ssS'brnew0.5'
p2725
(dp2726
g2690
F0.972137221356387
ssS'brnew0.6'
p2727
(dp2728
g2690
F0.927805646671748
ssS'brnew0.7'
p2729
(dp2730
g2690
F0.8606692010246486
sssS'cprime0.6'
p2731
(dp2732
S'brnew0.8'
p2733
(dp2734
g2690
F0.8356184481532537
ssS'brnew0.9'
p2735
(dp2736
g2690
F0.6360484959392338
ssS'brnew0.0'
p2737
(dp2738
g2690
F1.096617157194036
ssS'brnew0.1'
p2739
(dp2740
g2690
F1.0881681019429077
ssS'brnew0.2'
p2741
(dp2742
g2690
F1.0776327513739754
ssS'brnew0.3'
p2743
(dp2744
g2690
F1.0641954830516058
ssS'brnew0.4'
p2745
(dp2746
g2690
F1.046575851054509
ssS'brnew0.5'
p2747
(dp2748
g2690
F1.022327403089645
ssS'brnew0.6'
p2749
(dp2750
g2690
F0.9872112289116998
ssS'brnew0.7'
p2751
(dp2752
g2690
F0.9322024142253604
sssS'cprime0.5'
p2753
(dp2754
S'brnew0.8'
p2755
(dp2756
g2690
F0.9234704119860736
ssS'brnew0.9'
p2757
(dp2758
g2690
F0.744053250907135
ssS'brnew0.0'
p2759
(dp2760
g2690
F1.1200153926125034
ssS'brnew0.1'
p2761
(dp2762
g2690
F1.1141086169016492
ssS'brnew0.2'
p2763
(dp2764
g2690
F1.1067132958681871
ssS'brnew0.3'
p2765
(dp2766
g2690
F1.0972380035525062
ssS'brnew0.4'
p2767
(dp2768
g2690
F1.0846437043649002
ssS'brnew0.5'
p2769
(dp2770
g2690
F1.0671711851628378
ssS'brnew0.6'
p2771
(dp2772
g2690
F1.041465048003612
ssS'brnew0.7'
p2773
(dp2774
g2690
F0.9999556323033351
sssS'cprime0.4'
p2775
(dp2776
S'brnew0.8'
p2777
(dp2778
g2690
F1.0065664104334526
ssS'brnew0.9'
p2779
(dp2780
g2690
F0.8658417023072105
ssS'brnew0.0'
p2781
(dp2782
g2690
F1.1388616863064758
ssS'brnew0.1'
p2783
(dp2784
g2690
F1.1352088029525838
ssS'brnew0.2'
p2785
(dp2786
g2690
F1.1305798351559415
ssS'brnew0.3'
p2787
(dp2788
g2690
F1.1245561255748846
ssS'brnew0.4'
p2789
(dp2790
g2690
F1.1164763395105193
ssS'brnew0.5'
p2791
(dp2792
g2690
F1.1051192299528143
ssS'brnew0.6'
p2793
(dp2794
g2690
F1.0881681019429077
ssS'brnew0.7'
p2795
(dp2796
g2690
F1.060270222563384
sssS'cprime0.3'
p2797
(dp2798
S'brnew0.8'
p2799
(dp2800
g2690
F1.0776327513739754
ssS'brnew0.9'
p2801
(dp2802
g2690
F0.9872112289116998
ssS'brnew0.0'
p2803
(dp2804
g2690
F1.152548359143039
ssS'brnew0.1'
p2805
(dp2806
g2690
F1.1506918732222353
ssS'brnew0.2'
p2807
(dp2808
g2690
F1.1483172147990761
ssS'brnew0.3'
p2809
(dp2810
g2690
F1.1451904464160527
ssS'brnew0.4'
p2811
(dp2812
g2690
F1.1409010127793264
ssS'brnew0.5'
p2813
(dp2814
g2690
F1.1347440617130238
ssS'brnew0.6'
p2815
(dp2816
g2690
F1.1253092525621373
ssS'brnew0.7'
p2817
(dp2818
g2690
F1.109388585680982
sssS'cprime0.2'
p2819
(dp2820
S'brnew0.8'
p2821
(dp2822
g2690
F1.1305798351559415
ssS'brnew0.9'
p2823
(dp2824
g2690
F1.0881681019429077
ssS'brnew0.0'
p2825
(dp2826
g2690
F1.1612441557806423
ssS'brnew0.1'
p2827
(dp2828
g2690
F1.160461537409628
ssS'brnew0.2'
p2829
(dp2830
g2690
F1.1595099391864243
ssS'brnew0.3'
p2831
(dp2832
g2690
F1.158297688587442
ssS'brnew0.4'
p2833
(dp2834
g2690
F1.1566775355317684
ssS'brnew0.5'
p2835
(dp2836
g2690
F1.154347246621457
ssS'brnew0.6'
p2837
(dp2838
g2690
F1.1506918732222353
ssS'brnew0.7'
p2839
(dp2840
g2690
F1.1442453908228571
sssS'cprime0.1'
p2841
(dp2842
S'brnew0.8'
p2843
(dp2844
g2690
F1.1595099391864243
ssS'brnew0.9'
p2845
(dp2846
g2690
F1.1506918732222353
ssS'brnew0.0'
p2847
(dp2848
g2690
F1.1698302717989548
ssS'brnew0.1'
p2849
(dp2850
g2690
F1.1692365966353224
ssS'brnew0.2'
p2851
(dp2852
g2690
F1.1685453578853828
ssS'brnew0.3'
p2853
(dp2854
g2690
F1.1677748451945384
ssS'brnew0.4'
p2855
(dp2856
g2690
F1.1668480592268924
ssS'brnew0.5'
p2857
(dp2858
g2690
F1.165740495652265
ssS'brnew0.6'
p2859
(dp2860
g2690
F1.164346284969404
ssS'brnew0.7'
p2861
(dp2862
g2690
F1.1624975787364034
sssS'cprime0.9'
p2863
(dp2864
S'brnew0.8'
p2865
(dp2866
g2690
F0.601302363744568
ssS'brnew0.9'
p2867
(dp2868
g2690
F0.41470335538528225
ssS'brnew0.0'
p2869
(dp2870
g2690
F1.004551355625349
ssS'brnew0.1'
p2871
(dp2872
g2690
F0.9872112289116998
ssS'brnew0.2'
p2873
(dp2874
g2690
F0.9660833900100382
ssS'brnew0.3'
p2875
(dp2876
g2690
F0.9397862738192639
ssS'brnew0.4'
p2877
(dp2878
g2690
F0.9063622093889699
ssS'brnew0.5'
p2879
(dp2880
g2690
F0.8627367016801228
ssS'brnew0.6'
p2881
(dp2882
g2690
F0.8038798546270114
ssS'brnew0.7'
p2883
(dp2884
g2690
F0.7215044623249044
sssS'cprime0.8'
p2885
(dp2886
S'brnew0.8'
p2887
(dp2888
g2690
F0.6710956390573112
ssS'brnew0.9'
p2889
(dp2890
g2690
F0.47373526155546514
ssS'brnew0.0'
p2891
(dp2892
g2690
F1.0384225181194366
ssS'brnew0.1'
p2893
(dp2894
g2690
F1.0241274859688936
ssS'brnew0.2'
p2895
(dp2896
g2690
F1.0065664104334526
ssS'brnew0.3'
p2897
(dp2898
g2690
F0.9845136293482893
ssS'brnew0.4'
p2899
(dp2900
g2690
F0.9560942253907058
ssS'brnew0.5'
p2901
(dp2902
g2690
F0.9182894777120895
ssS'brnew0.6'
p2903
(dp2904
g2690
F0.8658417023072105
ssS'brnew0.7'
p2905
(dp2906
g2690
F0.7893956033024659
ssssS'350'
p2907
(dp2908
S'cprime1.0'
p2909
(dp2910
S'brnew0.8'
p2911
(dp2912
S'weight'
p2913
F1.092258223495602
ssS'brnew0.9'
p2914
(dp2915
g2913
F1.124567796083348
ssS'brnew0.0'
p2916
(dp2917
g2913
F1.0009715208890797
ssS'brnew0.1'
p2918
(dp2919
g2913
F1.0051731708963298
ssS'brnew0.2'
p2920
(dp2921
g2913
F1.010309832661051
ssS'brnew0.3'
p2922
(dp2923
g2913
F1.0167393212124867
ssS'brnew0.4'
p2924
(dp2925
g2913
F1.0246674507898115
ssS'brnew0.5'
p2926
(dp2927
g2913
F1.034791267470541
ssS'brnew0.6'
p2928
(dp2929
g2913
F1.0480972878291621
ssS'brnew0.7'
p2930
(dp2931
g2913
F1.0664589391803614
sssS'cprime0.7'
p2932
(dp2933
S'brnew0.8'
p2934
(dp2935
g2913
F1.0468973965991684
ssS'brnew0.9'
p2936
(dp2937
g2913
F1.0910612155146502
ssS'brnew0.0'
p2938
(dp2939
g2913
F0.9786906688103949
ssS'brnew0.1'
p2940
(dp2941
g2913
F0.9812296750096129
ssS'brnew0.2'
p2942
(dp2943
g2913
F0.9843163321969499
ssS'brnew0.3'
p2944
(dp2945
g2913
F0.9882677261276078
ssS'brnew0.4'
p2946
(dp2947
g2913
F0.9933409063080627
ssS'brnew0.5'
p2948
(dp2949
g2913
F1.0000512644217507
ssS'brnew0.6'
p2950
(dp2951
g2913
F1.0093833246731854
ssS'brnew0.7'
p2952
(dp2953
g2913
F1.023593205022491
sssS'cprime0.6'
p2954
(dp2955
S'brnew0.8'
p2956
(dp2957
g2913
F1.0288564414987853
ssS'brnew0.9'
p2958
(dp2959
g2913
F1.0714299484785033
ssS'brnew0.0'
p2960
(dp2961
g2913
F0.9723446674792043
ssS'brnew0.1'
p2962
(dp2963
g2913
F0.9743241760490472
ssS'brnew0.2'
p2964
(dp2965
g2913
F0.9767564376557443
ssS'brnew0.3'
p2966
(dp2967
g2913
F0.97984706678902
ssS'brnew0.4'
p2968
(dp2969
g2913
F0.9837448828013589
ssS'brnew0.5'
p2970
(dp2971
g2913
F0.9891419888144514
ssS'brnew0.6'
p2972
(dp2973
g2913
F0.9968275008209269
ssS'brnew0.7'
p2974
(dp2975
g2913
F1.008498330520106
sssS'cprime0.5'
p2976
(dp2977
S'brnew0.8'
p2978
(dp2979
g2913
F1.010309832661051
ssS'brnew0.9'
p2980
(dp2981
g2913
F1.0480972878291621
ssS'brnew0.0'
p2982
(dp2983
g2913
F0.9666544586236484
ssS'brnew0.1'
p2984
(dp2985
g2913
F0.968148689394059
ssS'brnew0.2'
p2986
(dp2987
g2913
F0.969923711140013
ssS'brnew0.3'
p2988
(dp2989
g2913
F0.9721866106946123
ssS'brnew0.4'
p2990
(dp2991
g2913
F0.9751231939198755
ssS'brnew0.5'
p2992
(dp2993
g2913
F0.9791359471397042
ssS'brnew0.6'
p2994
(dp2995
g2913
F0.9848949984509098
ssS'brnew0.7'
p2996
(dp2997
g2913
F0.9939464939832886
sssS'cprime0.4'
p2998
(dp2999
S'brnew0.8'
p3000
(dp3001
g2913
F0.9925401636594381
ssS'brnew0.9'
p3002
(dp3003
g2913
F1.0224483999626786
ssS'brnew0.0'
p3004
(dp3005
g2913
F0.9615571637677013
ssS'brnew0.1'
p3006
(dp3007
g2913
F0.9626233530545186
ssS'brnew0.2'
p3008
(dp3009
g2913
F0.9638599203623798
ssS'brnew0.3'
p3010
(dp3011
g2913
F0.9654610112067413
ssS'brnew0.4'
p3012
(dp3013
g2913
F0.9675375230622147
ssS'brnew0.5'
p3014
(dp3015
g2913
F0.9703426917547577
ssS'brnew0.6'
p3016
(dp3017
g2913
F0.9743241760490472
ssS'brnew0.7'
p3018
(dp3019
g2913
F0.9807055098107729
sssS'cprime0.3'
p3020
(dp3021
S'brnew0.8'
p3022
(dp3023
g2913
F0.9767564376557443
ssS'brnew0.9'
p3024
(dp3025
g2913
F0.9968275008209269
ssS'brnew0.0'
p3026
(dp3027
g2913
F0.9571160178297602
ssS'brnew0.1'
p3028
(dp3029
g2913
F0.9577220932478391
ssS'brnew0.2'
p3030
(dp3031
g2913
F0.9585413174166565
ssS'brnew0.3'
p3032
(dp3033
g2913
F0.9595866112656518
ssS'brnew0.4'
p3034
(dp3035
g2913
F0.9609673764578843
ssS'brnew0.5'
p3036
(dp3037
g2913
F0.9627353621705892
ssS'brnew0.6'
p3038
(dp3039
g2913
F0.9652618530184612
ssS'brnew0.7'
p3040
(dp3041
g2913
F0.9692769143883035
sssS'cprime0.2'
p3042
(dp3043
S'brnew0.8'
p3044
(dp3045
g2913
F0.9638599203623798
ssS'brnew0.9'
p3046
(dp3047
g2913
F0.9743241760490472
ssS'brnew0.0'
p3048
(dp3049
g2913
F0.9531998858154201
ssS'brnew0.1'
p3050
(dp3051
g2913
F0.9535713362187139
ssS'brnew0.2'
p3052
(dp3053
g2913
F0.954259959230756
ssS'brnew0.3'
p3054
(dp3055
g2913
F0.9546450880285318
ssS'brnew0.4'
p3056
(dp3057
g2913
F0.9554639527884659
ssS'brnew0.5'
p3058
(dp3059
g2913
F0.9564337394254405
ssS'brnew0.6'
p3060
(dp3061
g2913
F0.9577220932478391
ssS'brnew0.7'
p3062
(dp3063
g2913
F0.9599444285247304
sssS'cprime0.1'
p3064
(dp3065
S'brnew0.8'
p3066
(dp3067
g2913
F0.954259959230756
ssS'brnew0.9'
p3068
(dp3069
g2913
F0.9577220932478391
ssS'brnew0.0'
p3070
(dp3071
g2913
F0.9448201900536457
ssS'brnew0.1'
p3072
(dp3073
g2913
F0.945719184705513
ssS'brnew0.2'
p3074
(dp3075
g2913
F0.9465660806112796
ssS'brnew0.3'
p3076
(dp3077
g2913
F0.9474687041221398
ssS'brnew0.4'
p3078
(dp3079
g2913
F0.9486192840236012
ssS'brnew0.5'
p3080
(dp3081
g2913
F0.9500157990185024
ssS'brnew0.6'
p3082
(dp3083
g2913
F0.9511679562508154
ssS'brnew0.7'
p3084
(dp3085
g2913
F0.952484698982095
sssS'cprime0.9'
p3086
(dp3087
S'brnew0.8'
p3088
(dp3089
g2913
F1.079007205114207
ssS'brnew0.9'
p3090
(dp3091
g2913
F1.1176187181149442
ssS'brnew0.0'
p3092
(dp3093
g2913
F0.9929569451724041
ssS'brnew0.1'
p3094
(dp3095
g2913
F0.9968275008209269
ssS'brnew0.2'
p3096
(dp3097
g2913
F1.00130241598455
ssS'brnew0.3'
p3098
(dp3099
g2913
F1.0068431398362936
ssS'brnew0.4'
p3100
(dp3101
g2913
F1.0139749177904924
ssS'brnew0.5'
p3102
(dp3103
g2913
F1.0231587009618541
ssS'brnew0.6'
p3104
(dp3105
g2913
F1.0354832829516298
ssS'brnew0.7'
p3106
(dp3107
g2913
F1.0529335713601107
sssS'cprime0.8'
p3108
(dp3109
S'brnew0.8'
p3110
(dp3111
g2913
F1.0637825938576435
ssS'brnew0.9'
p3112
(dp3113
g2913
F1.1064935230272186
ssS'brnew0.0'
p3114
(dp3115
g2913
F0.9856136111976841
ssS'brnew0.1'
p3116
(dp3117
g2913
F0.9887341359713661
ssS'brnew0.2'
p3118
(dp3119
g2913
F0.9925401636594381
ssS'brnew0.3'
p3120
(dp3121
g2913
F0.9973616043161325
ssS'brnew0.4'
p3122
(dp3123
g2913
F1.0035255445572
ssS'brnew0.5'
p3124
(dp3125
g2913
F1.0114187495666522
ssS'brnew0.6'
p3126
(dp3127
g2913
F1.0224483999626786
ssS'brnew0.7'
p3128
(dp3129
g2913
F1.0385599273591997
ssssS'800'
p3130
(dp3131
S'cprime0.5'
p3132
(dp3133
S'brnew0.8'
p3134
(dp3135
S'weight'
p3136
F0.8883019109905398
ssS'brnew0.9'
p3137
(dp3138
g3136
F0.6691967379070233
ssS'brnew0.0'
p3139
(dp3140
g3136
F1.1328632407672574
ssS'brnew0.1'
p3141
(dp3142
g3136
F1.125861273318765
ssS'brnew0.2'
p3143
(dp3144
g3136
F1.1170773074314342
ssS'brnew0.3'
p3145
(dp3146
g3136
F1.1057575041265666
ssS'brnew0.4'
p3147
(dp3148
g3136
F1.0906185405958926
ssS'brnew0.5'
p3149
(dp3150
g3136
F1.0693821085013413
ssS'brnew0.6'
p3151
(dp3152
g3136
F1.0376012613559227
ssS'brnew0.7'
p3153
(dp3154
g3136
F0.9855579083373636
sssS'cprime0.7'
p3155
(dp3156
S'brnew0.8'
p3157
(dp3158
g3136
F0.6760341832054978
ssS'brnew0.9'
p3159
(dp3160
g3136
F0.4526195177872768
ssS'brnew0.0'
p3161
(dp3162
g3136
F1.0719331219468446
ssS'brnew0.1'
p3163
(dp3164
g3136
F1.0580538331902039
ssS'brnew0.2'
p3165
(dp3166
g3136
F1.0407833228364385
ssS'brnew0.3'
p3167
(dp3168
g3136
F1.0186939466105651
ssS'brnew0.4'
p3169
(dp3170
g3136
F0.9896713685623423
ssS'brnew0.5'
p3171
(dp3172
g3136
F0.9501106608808226
ssS'brnew0.6'
p3173
(dp3174
g3136
F0.893815818586332
ssS'brnew0.7'
p3175
(dp3176
g3136
F0.8095141718324615
sssS'cprime0.6'
p3177
(dp3178
S'brnew0.8'
p3179
(dp3180
g3136
F0.7786317786317809
ssS'brnew0.9'
p3181
(dp3182
g3136
F0.5476948698186827
ssS'brnew0.0'
p3183
(dp3184
g3136
F1.1050326957363625
ssS'brnew0.1'
p3185
(dp3186
g3136
F1.0948651833255998
ssS'brnew0.2'
p3187
(dp3188
g3136
F1.0821275029393016
ssS'brnew0.3'
p3189
(dp3190
g3136
F1.0657415042612166
ssS'brnew0.4'
p3191
(dp3192
g3136
F1.0439454725847936
ssS'brnew0.5'
p3193
(dp3194
g3136
F1.0136832011454808
ssS'brnew0.6'
p3195
(dp3196
g3136
F0.9693092715695683
ssS'brnew0.7'
p3197
(dp3198
g3136
F0.8993777833839541
sssS'cprime1.0'
p3199
(dp3200
S'brnew0.8'
p3201
(dp3202
g3136
F0.4467416076711237
ssS'brnew0.9'
p3203
(dp3204
g3136
F0.274884525865675
ssS'brnew0.0'
p3205
(dp3206
g3136
F0.9453740197415348
ssS'brnew0.1'
p3207
(dp3208
g3136
F0.9194809197895062
ssS'brnew0.2'
p3209
(dp3210
g3136
F0.8883019109905398
ssS'brnew0.3'
p3211
(dp3212
g3136
F0.8502489325044084
ssS'brnew0.4'
p3213
(dp3214
g3136
F0.8031736947858132
ssS'brnew0.5'
p3215
(dp3216
g3136
F0.7441630235839602
ssS'brnew0.6'
p3217
(dp3218
g3136
F0.6691967379070233
ssS'brnew0.7'
p3219
(dp3220
g3136
F0.5727707683768533
sssS'cprime0.4'
p3221
(dp3222
S'brnew0.8'
p3223
(dp3224
g3136
F0.9937740581154471
ssS'brnew0.9'
p3225
(dp3226
g3136
F0.8159319517905252
ssS'brnew0.0'
p3227
(dp3228
g3136
F1.1554212862063804
ssS'brnew0.1'
p3229
(dp3230
g3136
F1.150983869019634
ssS'brnew0.2'
p3231
(dp3232
g3136
F1.1454239230750147
ssS'brnew0.3'
p3233
(dp3234
g3136
F1.1382569482155869
ssS'brnew0.4'
p3235
(dp3236
g3136
F1.128666825872139
ssS'brnew0.5'
p3237
(dp3238
g3136
F1.1151847815728007
ssS'brnew0.6'
p3239
(dp3240
g3136
F1.0948651833255998
ssS'brnew0.7'
p3241
(dp3242
g3136
F1.0608948471616961
sssS'cprime0.3'
p3243
(dp3244
S'brnew0.8'
p3245
(dp3246
g3136
F1.0821275029393016
ssS'brnew0.9'
p3247
(dp3248
g3136
F0.9693092715695683
ssS'brnew0.0'
p3249
(dp3250
g3136
F1.1728166200996348
ssS'brnew0.1'
p3251
(dp3252
g3136
F1.1703455152321385
ssS'brnew0.2'
p3253
(dp3254
g3136
F1.1672418276102483
ssS'brnew0.3'
p3255
(dp3256
g3136
F1.163249778361309
ssS'brnew0.4'
p3257
(dp3258
g3136
F1.1579134356204472
ssS'brnew0.5'
p3259
(dp3260
g3136
F1.1504274823341964
ssS'brnew0.6'
p3261
(dp3262
g3136
F1.1391511280717213
ssS'brnew0.7'
p3263
(dp3264
g3136
F1.120246517358671
sssS'cprime0.2'
p3265
(dp3266
S'brnew0.8'
p3267
(dp3268
g3136
F1.1454239230750147
ssS'brnew0.9'
p3269
(dp3270
g3136
F1.0948651833255998
ssS'brnew0.0'
p3271
(dp3272
g3136
F1.1849990939788555
ssS'brnew0.1'
p3273
(dp3274
g3136
F1.1839365418753693
ssS'brnew0.2'
p3275
(dp3276
g3136
F1.182596542605626
ssS'brnew0.3'
p3277
(dp3278
g3136
F1.1808738487308297
ssS'brnew0.4'
p3279
(dp3280
g3136
F1.178551096006101
ssS'brnew0.5'
p3281
(dp3282
g3136
F1.1752799708849146
ssS'brnew0.6'
p3283
(dp3284
g3136
F1.1703455152321385
ssS'brnew0.7'
p3285
(dp3286
g3136
F1.1620675579865936
sssS'cprime0.1'
p3287
(dp3288
S'brnew0.8'
p3289
(dp3290
g3136
F1.182596542605626
ssS'brnew0.9'
p3291
(dp3292
g3136
F1.1703455152321385
ssS'brnew0.0'
p3293
(dp3294
g3136
F1.1903359084315355
ssS'brnew0.1'
p3295
(dp3296
g3136
F1.1904006546737445
ssS'brnew0.2'
p3297
(dp3298
g3136
F1.1904023665401424
ssS'brnew0.3'
p3299
(dp3300
g3136
F1.1902976446367686
ssS'brnew0.4'
p3301
(dp3302
g3136
F1.19003140722227
ssS'brnew0.5'
p3303
(dp3304
g3136
F1.189484438624454
ssS'brnew0.6'
p3305
(dp3306
g3136
F1.188472149461137
ssS'brnew0.7'
p3307
(dp3308
g3136
F1.186572417290034
sssS'cprime0.9'
p3309
(dp3310
S'brnew0.8'
p3311
(dp3312
g3136
F0.5102585359134743
ssS'brnew0.9'
p3313
(dp3314
g3136
F0.32096245306880283
ssS'brnew0.0'
p3315
(dp3316
g3136
F0.9913161478262099
ssS'brnew0.1'
p3317
(dp3318
g3136
F0.9693092715695683
ssS'brnew0.2'
p3319
(dp3320
g3136
F0.942419670204441
ssS'brnew0.3'
p3321
(dp3322
g3136
F0.9090028305643757
ssS'brnew0.4'
p3323
(dp3324
g3136
F0.8667030370981165
ssS'brnew0.5'
p3325
(dp3326
g3136
F0.8120726947751598
ssS'brnew0.6'
p3327
(dp3328
g3136
F0.7400438838784864
ssS'brnew0.7'
p3329
(dp3330
g3136
F0.6431620364091889
sssS'cprime0.8'
p3331
(dp3332
S'brnew0.8'
p3333
(dp3334
g3136
F0.5862381936855915
ssS'brnew0.9'
p3335
(dp3336
g3136
F0.378831173795585
ssS'brnew0.0'
p3337
(dp3338
g3136
F1.033823363102201
ssS'brnew0.1'
p3339
(dp3340
g3136
F1.0159252779485897
ssS'brnew0.2'
p3341
(dp3342
g3136
F0.9937740581154471
ssS'brnew0.3'
p3343
(dp3344
g3136
F0.9658503612771018
ssS'brnew0.4'
p3345
(dp3346
g3136
F0.9297421405697139
ssS'brnew0.5'
p3347
(dp3348
g3136
F0.88174437384868
ssS'brnew0.6'
p3349
(dp3350
g3136
F0.8159319517905252
ssS'brnew0.7'
p3351
(dp3352
g3136
F0.7226711033755487
ssssS'500'
p3353
(dp3354
S'cprime0.5'
p3355
(dp3356
S'brnew0.8'
p3357
(dp3358
S'weight'
p3359
F0.9501733648144723
ssS'brnew0.9'
p3360
(dp3361
g3359
F0.8210176289210561
ssS'brnew0.0'
p3362
(dp3363
g3359
F1.090561234186826
ssS'brnew0.1'
p3364
(dp3365
g3359
F1.0861177031118256
ssS'brnew0.2'
p3366
(dp3367
g3359
F1.0806229422287599
ssS'brnew0.3'
p3368
(dp3369
g3359
F1.0736158967401441
ssS'brnew0.4'
p3370
(dp3371
g3359
F1.0644169069927907
ssS'brnew0.5'
p3372
(dp3373
g3359
F1.0517632758018458
ssS'brnew0.6'
p3374
(dp3375
g3359
F1.0333849823124182
ssS'brnew0.7'
p3376
(dp3377
g3359
F1.004097213108111
sssS'cprime0.7'
p3378
(dp3379
S'brnew0.8'
p3380
(dp3381
g3359
F0.8253724594897148
ssS'brnew0.9'
p3382
(dp3383
g3359
F0.6646438566458813
ssS'brnew0.0'
p3384
(dp3385
g3359
F1.0532859427420225
ssS'brnew0.1'
p3386
(dp3387
g3359
F1.0451528120237297
ssS'brnew0.2'
p3388
(dp3389
g3359
F1.0351766436547376
ssS'brnew0.3'
p3390
(dp3391
g3359
F1.022685555123615
ssS'brnew0.4'
p3392
(dp3393
g3359
F1.0063084777745623
ssS'brnew0.5'
p3394
(dp3395
g3359
F0.9844440157365489
ssS'brnew0.6'
p3396
(dp3397
g3359
F0.9532139486198324
ssS'brnew0.7'
p3398
(dp3399
g3359
F0.9057515313193494
sssS'cprime0.6'
p3400
(dp3401
S'brnew0.8'
p3402
(dp3403
g3359
F0.8878600702212365
ssS'brnew0.9'
p3404
(dp3405
g3359
F0.7380868643720612
ssS'brnew0.0'
p3406
(dp3407
g3359
F1.0731431154656135
ssS'brnew0.1'
p3408
(dp3409
g3359
F1.0669804591113758
ssS'brnew0.2'
p3410
(dp3411
g3359
F1.0593392836802256
ssS'brnew0.3'
p3412
(dp3413
g3359
F1.049639593986137
ssS'brnew0.4'
p3414
(dp3415
g3359
F1.0370233340532247
ssS'brnew0.5'
p3416
(dp3417
g3359
F1.019773177441092
ssS'brnew0.6'
p3418
(dp3419
g3359
F0.9950978201533546
ssS'brnew0.7'
p3420
(dp3421
g3359
F0.956290845516425
sssS'cprime1.0'
p3422
(dp3423
S'brnew0.8'
p3424
(dp3425
g3359
F0.6598229202954135
ssS'brnew0.9'
p3426
(dp3427
g3359
F0.5011017376179839
ssS'brnew0.0'
p3428
(dp3429
g3359
F0.9818308421101422
ssS'brnew0.1'
p3430
(dp3431
g3359
F0.9674754283063716
ssS'brnew0.2'
p3432
(dp3433
g3359
F0.9501733648144723
ssS'brnew0.3'
p3434
(dp3435
g3359
F0.9288909204230293
ssS'brnew0.4'
p3436
(dp3437
g3359
F0.9021137770330291
ssS'brnew0.5'
p3438
(dp3439
g3359
F0.8674495460428208
ssS'brnew0.6'
p3440
(dp3441
g3359
F0.8210176289210561
ssS'brnew0.7'
p3442
(dp3443
g3359
F0.7561186807439189
sssS'cprime0.4'
p3444
(dp3445
S'brnew0.8'
p3446
(dp3447
g3359
F1.0086635186937878
ssS'brnew0.9'
p3448
(dp3449
g3359
F0.9094035562112466
ssS'brnew0.0'
p3450
(dp3451
g3359
F1.10507058737024
ssS'brnew0.1'
p3452
(dp3453
g3359
F1.1022027217486308
ssS'brnew0.2'
p3454
(dp3455
g3359
F1.0985888929874634
ssS'brnew0.3'
p3456
(dp3457
g3359
F1.0939830073856265
ssS'brnew0.4'
p3458
(dp3459
g3359
F1.0878809321377394
ssS'brnew0.5'
p3460
(dp3461
g3359
F1.0794395342018366
ssS'brnew0.6'
p3462
(dp3463
g3359
F1.0669804591113758
ssS'brnew0.7'
p3464
(dp3465
g3359
F1.046819268885032
sssS'cprime0.3'
p3466
(dp3467
S'brnew0.8'
p3468
(dp3469
g3359
F1.0593392836802256
ssS'brnew0.9'
p3470
(dp3471
g3359
F0.9950978201533546
ssS'brnew0.0'
p3472
(dp3473
g3359
F1.1163726588712435
ssS'brnew0.1'
p3474
(dp3475
g3359
F1.1147652917843538
ssS'brnew0.2'
p3476
(dp3477
g3359
F1.1127641191549618
ssS'brnew0.3'
p3478
(dp3479
g3359
F1.1101782272163059
ssS'brnew0.4'
p3480
(dp3481
g3359
F1.106688725929381
ssS'brnew0.5'
p3482
(dp3483
g3359
F1.1018345814298192
ssS'brnew0.6'
p3484
(dp3485
g3359
F1.09455609701896
ssS'brnew0.7'
p3486
(dp3487
g3359
F1.0825831001333557
sssS'cprime0.2'
p3488
(dp3489
S'brnew0.8'
p3490
(dp3491
g3359
F1.0985888929874634
ssS'brnew0.9'
p3492
(dp3493
g3359
F1.0669804591113758
ssS'brnew0.0'
p3494
(dp3495
g3359
F1.1237845446863859
ssS'brnew0.1'
p3496
(dp3497
g3359
F1.1232252750408083
ssS'brnew0.2'
p3498
(dp3499
g3359
F1.1224834581054763
ssS'brnew0.3'
p3500
(dp3501
g3359
F1.1214629003552599
ssS'brnew0.4'
p3502
(dp3503
g3359
F1.1200333853352662
ssS'brnew0.5'
p3504
(dp3505
g3359
F1.1179665405812955
ssS'brnew0.6'
p3506
(dp3507
g3359
F1.1147652917843538
ssS'brnew0.7'
p3508
(dp3509
g3359
F1.1093949824970437
sssS'cprime0.1'
p3510
(dp3511
S'brnew0.8'
p3512
(dp3513
g3359
F1.1224834581054763
ssS'brnew0.9'
p3514
(dp3515
g3359
F1.1147652917843538
ssS'brnew0.0'
p3516
(dp3517
g3359
F1.1243409847174488
ssS'brnew0.1'
p3518
(dp3519
g3359
F1.1246767322027147
ssS'brnew0.2'
p3520
(dp3521
g3359
F1.1250233377162135
ssS'brnew0.3'
p3522
(dp3523
g3359
F1.1253388545857768
ssS'brnew0.4'
p3524
(dp3525
g3359
F1.1254307626457818
ssS'brnew0.5'
p3526
(dp3527
g3359
F1.1254720770270406
ssS'brnew0.6'
p3528
(dp3529
g3359
F1.1252365443188794
ssS'brnew0.7'
p3530
(dp3531
g3359
F1.1245190510964829
sssS'cprime0.9'
p3532
(dp3533
S'brnew0.8'
p3534
(dp3535
g3359
F0.7101596578543741
ssS'brnew0.9'
p3536
(dp3537
g3359
F0.547393776003569
ssS'brnew0.0'
p3538
(dp3539
g3359
F1.0071910092498306
ssS'brnew0.1'
p3540
(dp3541
g3359
F0.9950978201533546
ssS'brnew0.2'
p3542
(dp3543
g3359
F0.980104139309341
ssS'brnew0.3'
p3544
(dp3545
g3359
F0.9616886483199706
ssS'brnew0.4'
p3546
(dp3547
g3359
F0.9381404735318619
ssS'brnew0.5'
p3548
(dp3549
g3359
F0.9072046483350577
ssS'brnew0.6'
p3550
(dp3551
g3359
F0.8649466004748775
ssS'brnew0.7'
p3552
(dp3553
g3359
F0.8041355021873815
sssS'cprime0.8'
p3554
(dp3555
S'brnew0.8'
p3556
(dp3557
g3359
F0.7655800914999017
ssS'brnew0.9'
p3558
(dp3559
g3359
F0.6014105486639094
ssS'brnew0.0'
p3560
(dp3561
g3359
F1.031220584455197
ssS'brnew0.1'
p3562
(dp3563
g3359
F1.021047646519256
ssS'brnew0.2'
p3564
(dp3565
g3359
F1.0086635186937878
ssS'brnew0.3'
p3566
(dp3567
g3359
F0.9931227832593319
ssS'brnew0.4'
p3568
(dp3569
g3359
F0.973181394748303
ssS'brnew0.5'
p3570
(dp3571
g3359
F0.9465252018484478
ssS'brnew0.6'
p3572
(dp3573
g3359
F0.9094035562112466
ssS'brnew0.7'
p3574
(dp3575
g3359
F0.8544473221159805
ssssS'1000'
p3576
(dp3577
S'cprime0.5'
p3578
(dp3579
S'brnew0.8'
p3580
(dp3581
S'weight'
p3582
F0.7936343026009656
ssS'brnew0.9'
p3583
(dp3584
g3582
F0.5326641861855465
ssS'brnew0.0'
p3585
(dp3586
g3582
F1.1436117070877376
ssS'brnew0.1'
p3587
(dp3588
g3582
F1.13432863816074
ssS'brnew0.2'
p3589
(dp3590
g3582
F1.122398842451214
ssS'brnew0.3'
p3591
(dp3592
g3582
F1.1066212361944252
ssS'brnew0.4'
p3593
(dp3594
g3582
F1.0849783684940066
ssS'brnew0.5'
p3595
(dp3596
g3582
F1.0539368027771128
ssS'brnew0.6'
p3597
(dp3598
g3582
F1.0068083095804299
ssS'brnew0.7'
p3599
(dp3600
g3582
F0.9299830727771053
sssS'cprime0.7'
p3601
(dp3602
S'brnew0.8'
p3603
(dp3604
g3582
F0.5399396611787246
ssS'brnew0.9'
p3605
(dp3606
g3582
F0.323443070970377
ssS'brnew0.0'
p3607
(dp3608
g3582
F1.0577005133515343
ssS'brnew0.1'
p3609
(dp3610
g3582
F1.0371958261201366
ssS'brnew0.2'
p3611
(dp3612
g3582
F1.0115468991336607
ssS'brnew0.3'
p3613
(dp3614
g3582
F0.9787375452313436
ssS'brnew0.4'
p3615
(dp3616
g3582
F0.9359717351669391
ssS'brnew0.5'
p3617
(dp3618
g3582
F0.8789097561774812
ssS'brnew0.6'
p3619
(dp3620
g3582
F0.8010314938914785
ssS'brnew0.7'
p3621
(dp3622
g3582
F0.6926241300459017
sssS'cprime0.6'
p3623
(dp3624
S'brnew0.8'
p3625
(dp3626
g3582
F0.6553534107045628
ssS'brnew0.9'
p3627
(dp3628
g3582
F0.4106766239943689
ssS'brnew0.0'
p3629
(dp3630
g3582
F1.1055936106679898
ssS'brnew0.1'
p3631
(dp3632
g3582
F1.091096354707179
ssS'brnew0.2'
p3633
(dp3634
g3582
F1.072648212990313
ssS'brnew0.3'
p3635
(dp3636
g3582
F1.0485681970950336
ssS'brnew0.4'
p3637
(dp3638
g3582
F1.0162320030050742
ssS'brnew0.5'
p3639
(dp3640
g3582
F0.9713208753690172
ssS'brnew0.6'
p3641
(dp3642
g3582
F0.9063960387782966
ssS'brnew0.7'
p3643
(dp3644
g3582
F0.8085265370168657
sssS'cprime1.0'
p3645
(dp3646
S'brnew0.8'
p3647
(dp3648
g3582
F0.31825790491636236
ssS'brnew0.9'
p3649
(dp3650
g3582
F0.1770240954340872
ssS'brnew0.0'
p3651
(dp3652
g3582
F0.8721921865913178
ssS'brnew0.1'
p3653
(dp3654
g3582
F0.8360180340206447
ssS'brnew0.2'
p3655
(dp3656
g3582
F0.7936343026009656
ssS'brnew0.3'
p3657
(dp3658
g3582
F0.7437609291732554
ssS'brnew0.4'
p3659
(dp3660
g3582
F0.6848716916249646
ssS'brnew0.5'
p3661
(dp3662
g3582
F0.6151951507687846
ssS'brnew0.6'
p3663
(dp3664
g3582
F0.5326641861855465
ssS'brnew0.7'
p3665
(dp3666
g3582
F0.4348099675654562
sssS'cprime0.4'
p3667
(dp3668
S'brnew0.8'
p3669
(dp3670
g3582
F0.9420056852286024
ssS'brnew0.9'
p3671
(dp3672
g3582
F0.70053546482765
ssS'brnew0.0'
p3673
(dp3674
g3582
F1.1716117757446787
ssS'brnew0.1'
p3675
(dp3676
g3582
F1.166377224372243
ssS'brnew0.2'
p3677
(dp3678
g3582
F1.1596108798866933
ssS'brnew0.3'
p3679
(dp3680
g3582
F1.1505876857864272
ssS'brnew0.4'
p3681
(dp3682
g3582
F1.1380769434413114
ssS'brnew0.5'
p3683
(dp3684
g3582
F1.1197809416515363
ssS'brnew0.6'
p3685
(dp3686
g3582
F1.091096354707179
ssS'brnew0.7'
p3687
(dp3688
g3582
F1.0413974719262828
sssS'cprime0.3'
p3689
(dp3690
S'brnew0.8'
p3691
(dp3692
g3582
F1.072648212990313
ssS'brnew0.9'
p3693
(dp3694
g3582
F0.9063960387782966
ssS'brnew0.0'
p3695
(dp3696
g3582
F1.190371436926108
ssS'brnew0.1'
p3697
(dp3698
g3582
F1.1879057192469438
ssS'brnew0.2'
p3699
(dp3700
g3582
F1.1847154784873548
ssS'brnew0.3'
p3701
(dp3702
g3582
F1.1804401218724025
ssS'brnew0.4'
p3703
(dp3704
g3582
F1.1744832785909214
ssS'brnew0.5'
p3705
(dp3706
g3582
F1.1657071201066707
ssS'brnew0.6'
p3707
(dp3708
g3582
F1.151740259509395
ssS'brnew0.7'
p3709
(dp3710
g3582
F1.1267320890633354
sssS'cprime0.2'
p3711
(dp3712
S'brnew0.8'
p3713
(dp3714
g3582
F1.1596108798866933
ssS'brnew0.9'
p3715
(dp3716
g3582
F1.091096354707179
ssS'brnew0.0'
p3717
(dp3718
g3582
F1.201334247680997
ssS'brnew0.1'
p3719
(dp3720
g3582
F1.2004766825281143
ssS'brnew0.2'
p3721
(dp3722
g3582
F1.1993553353491924
ssS'brnew0.3'
p3723
(dp3724
g3582
F1.1978640323427667
ssS'brnew0.4'
p3725
(dp3726
g3582
F1.1958015854623658
ssS'brnew0.5'
p3727
(dp3728
g3582
F1.1927571797071457
ssS'brnew0.6'
p3729
(dp3730
g3582
F1.1879057192469438
ssS'brnew0.7'
p3731
(dp3732
g3582
F1.1791432251148473
sssS'cprime0.1'
p3733
(dp3734
S'brnew0.8'
p3735
(dp3736
g3582
F1.1993553353491924
ssS'brnew0.9'
p3737
(dp3738
g3582
F1.1879057192469438
ssS'brnew0.0'
p3739
(dp3740
g3582
F1.2050915304265704
ssS'brnew0.1'
p3741
(dp3742
g3582
F1.2053028151334715
ssS'brnew0.2'
p3743
(dp3744
g3582
F1.205434832871362
ssS'brnew0.3'
p3745
(dp3746
g3582
F1.2054363611538188
ssS'brnew0.4'
p3747
(dp3748
g3582
F1.2052641441078822
ssS'brnew0.5'
p3749
(dp3750
g3582
F1.204844394347352
ssS'brnew0.6'
p3751
(dp3752
g3582
F1.2040542781171841
ssS'brnew0.7'
p3753
(dp3754
g3582
F1.2025880722192153
sssS'cprime0.9'
p3755
(dp3756
S'brnew0.8'
p3757
(dp3758
g3582
F0.37554943489876735
ssS'brnew0.9'
p3759
(dp3760
g3582
F0.21288105216649103
ssS'brnew0.0'
p3761
(dp3762
g3582
F0.938391780774283
ssS'brnew0.1'
p3763
(dp3764
g3582
F0.9063960387782966
ssS'brnew0.2'
p3765
(dp3766
g3582
F0.8680222110732966
ssS'brnew0.3'
p3767
(dp3768
g3582
F0.8216223777908985
ssS'brnew0.4'
p3769
(dp3770
g3582
F0.7650752653821979
ssS'brnew0.5'
p3771
(dp3772
g3582
F0.6957730508784234
ssS'brnew0.6'
p3773
(dp3774
g3582
F0.6104946918569253
ssS'brnew0.7'
p3775
(dp3776
g3582
F0.5053950337309774
sssS'cprime0.8'
p3777
(dp3778
S'brnew0.8'
p3779
(dp3780
g3582
F0.4479827018295215
ssS'brnew0.9'
p3781
(dp3782
g3582
F0.2600381176229239
ssS'brnew0.0'
p3783
(dp3784
g3582
F1.0011392884783543
ssS'brnew0.1'
p3785
(dp3786
g3582
F0.9746194236016799
ssS'brnew0.2'
p3787
(dp3788
g3582
F0.9420056852286024
ssS'brnew0.3'
p3789
(dp3790
g3582
F0.9014146917591656
ssS'brnew0.4'
p3791
(dp3792
g3582
F0.8502528871065304
ssS'brnew0.5'
p3793
(dp3794
g3582
F0.7848963798489225
ssS'brnew0.6'
p3795
(dp3796
g3582
F0.70053546482765
ssS'brnew0.7'
p3797
(dp3798
g3582
F0.5908920963348121
ssss.