(dp0
S'900'
p1
(dp2
S'cprime0.5'
p3
(dp4
S'brnew0.8'
p5
(dp6
S'weight'
p7
F0.9900453436024781
ssS'brnew0.9'
p8
(dp9
g7
F0.9714581325638435
ssS'brnew0.0'
p10
(dp11
g7
F1.0125894063212393
ssS'brnew0.1'
p12
(dp13
g7
F1.0116193658425277
ssS'brnew0.2'
p14
(dp15
g7
F1.0104728495362605
ssS'brnew0.3'
p16
(dp17
g7
F1.0090866314511349
ssS'brnew0.4'
p18
(dp19
g7
F1.0073562446136655
ssS'brnew0.5'
p20
(dp21
g7
F1.005105738653613
ssS'brnew0.6'
p22
(dp23
g7
F1.0020189290536468
ssS'brnew0.7'
p24
(dp25
g7
F0.9974866298616454
sssS'cprime0.7'
p26
(dp27
S'brnew0.8'
p28
(dp29
g7
F0.9722376643064827
ssS'brnew0.9'
p30
(dp31
g7
F0.9248029107743185
ssS'brnew0.0'
p32
(dp33
g7
F1.0053672899696933
ssS'brnew0.1'
p34
(dp35
g7
F1.0039720620146984
ssS'brnew0.2'
p36
(dp37
g7
F1.0023139020945144
ssS'brnew0.3'
p38
(dp39
g7
F1.000306187140327
ssS'brnew0.4'
p40
(dp41
g7
F0.9978235438951896
ssS'brnew0.5'
p42
(dp43
g7
F0.9946616794912225
ssS'brnew0.6'
p44
(dp45
g7
F0.990448205397965
ssS'brnew0.7'
p46
(dp47
g7
F0.9842512549290657
sssS'cprime0.6'
p48
(dp49
S'brnew0.8'
p50
(dp51
g7
F0.9818468736398502
ssS'brnew0.9'
p52
(dp53
g7
F0.9522051924502531
ssS'brnew0.0'
p54
(dp55
g7
F1.00900066319367
ssS'brnew0.1'
p56
(dp57
g7
F1.0078297875564872
ssS'brnew0.2'
p58
(dp59
g7
F1.0064347801588764
ssS'brnew0.3'
p60
(dp61
g7
F1.0047349336731335
ssS'brnew0.4'
p62
(dp63
g7
F1.0026106216705326
ssS'brnew0.5'
p64
(dp65
g7
F0.9998663858517639
ssS'brnew0.6'
p66
(dp67
g7
F0.9961698836066242
ssS'brnew0.7'
p68
(dp69
g7
F0.9908548333945097
sssS'cprime1.0'
p70
(dp71
S'brnew0.8'
p72
(dp73
g7
F0.9225430974965081
ssS'brnew0.9'
p74
(dp75
g7
F0.803120998071082
ssS'brnew0.0'
p76
(dp77
g7
F0.9942958460256962
ssS'brnew0.1'
p78
(dp79
g7
F0.9923403846374276
ssS'brnew0.2'
p80
(dp81
g7
F0.9900453436024781
ssS'brnew0.3'
p82
(dp83
g7
F0.9872746547458954
ssS'brnew0.4'
p84
(dp85
g7
F0.9837685811687752
ssS'brnew0.5'
p86
(dp87
g7
F0.9789625477568382
ssS'brnew0.6'
p88
(dp89
g7
F0.9714581325638435
ssS'brnew0.7'
p90
(dp91
g7
F0.9572480470868722
sssS'cprime0.4'
p92
(dp93
S'brnew0.8'
p94
(dp95
g7
F0.9981672192313036
ssS'brnew0.9'
p96
(dp97
g7
F0.9847368686379417
ssS'brnew0.0'
p98
(dp99
g7
F1.0162506574389947
ssS'brnew0.1'
p100
(dp101
g7
F1.0154461974208868
ssS'brnew0.2'
p102
(dp103
g7
F1.0145044642293592
ssS'brnew0.3'
p104
(dp105
g7
F1.013379676977304
ssS'brnew0.4'
p106
(dp107
g7
F1.0120002937459394
ssS'brnew0.5'
p108
(dp109
g7
F1.010233415149665
ssS'brnew0.6'
p110
(dp111
g7
F1.0078297875564872
ssS'brnew0.7'
p112
(dp113
g7
F1.0042513859108677
sssS'cprime0.3'
p114
(dp115
S'brnew0.8'
p116
(dp117
g7
F1.0064347801588764
ssS'brnew0.9'
p118
(dp119
g7
F0.9961698836066242
ssS'brnew0.0'
p120
(dp121
g7
F1.0200415733288377
ssS'brnew0.1'
p122
(dp123
g7
F1.0194260855656456
ssS'brnew0.2'
p124
(dp125
g7
F1.018695935380439
ssS'brnew0.3'
p126
(dp127
g7
F1.0178139027342563
ssS'brnew0.4'
p128
(dp129
g7
F1.0167281486715214
ssS'brnew0.5'
p130
(dp131
g7
F1.0153484908616837
ssS'brnew0.6'
p132
(dp133
g7
F1.0135160096469862
ssS'brnew0.7'
p134
(dp135
g7
F1.0108768343629855
sssS'cprime0.2'
p136
(dp137
S'brnew0.8'
p138
(dp139
g7
F1.0145044642293592
ssS'brnew0.9'
p140
(dp141
g7
F1.0078297875564872
ssS'brnew0.0'
p142
(dp143
g7
F1.0233148124711933
ssS'brnew0.1'
p144
(dp145
g7
F1.023080165760927
ssS'brnew0.2'
p146
(dp147
g7
F1.022734519558012
ssS'brnew0.3'
p148
(dp149
g7
F1.0222510589816936
ssS'brnew0.4'
p150
(dp151
g7
F1.0215895690911174
ssS'brnew0.5'
p152
(dp153
g7
F1.02068694207951
ssS'brnew0.6'
p154
(dp155
g7
F1.0194260855656456
ssS'brnew0.7'
p156
(dp157
g7
F1.0175635640904026
sssS'cprime0.1'
p158
(dp159
S'brnew0.8'
p160
(dp161
g7
F1.022734519558012
ssS'brnew0.9'
p162
(dp163
g7
F1.0194260855656456
ssS'brnew0.0'
p164
(dp165
g7
F1.0207029775984557
ssS'brnew0.1'
p166
(dp167
g7
F1.0209063497374264
ssS'brnew0.2'
p168
(dp169
g7
F1.0212263132081696
ssS'brnew0.3'
p170
(dp171
g7
F1.021667261855082
ssS'brnew0.4'
p172
(dp173
g7
F1.0222184704526582
ssS'brnew0.5'
p174
(dp175
g7
F1.0228234660072948
ssS'brnew0.6'
p176
(dp177
g7
F1.0233571029828576
ssS'brnew0.7'
p178
(dp179
g7
F1.0235317617290114
sssS'cprime0.9'
p180
(dp181
S'brnew0.8'
p182
(dp183
g7
F0.9432013014586292
ssS'brnew0.9'
p184
(dp185
g7
F0.848324197035154
ssS'brnew0.0'
p186
(dp187
g7
F0.9979607514266983
ssS'brnew0.1'
p188
(dp189
g7
F0.9961698836066242
ssS'brnew0.2'
p190
(dp191
g7
F0.9940697113720112
ssS'brnew0.3'
p192
(dp193
g7
F0.9915635636175494
ssS'brnew0.4'
p194
(dp195
g7
F0.9884728146992174
ssS'brnew0.5'
p196
(dp197
g7
F0.9844453584768442
ssS'brnew0.6'
p198
(dp199
g7
F0.9785993123762674
ssS'brnew0.7'
p200
(dp201
g7
F0.968261697402881
sssS'cprime0.8'
p202
(dp203
S'brnew0.8'
p204
(dp205
g7
F0.959681304781296
ssS'brnew0.9'
p206
(dp207
g7
F0.8895958170525331
ssS'brnew0.0'
p208
(dp209
g7
F1.0016679085651967
ssS'brnew0.1'
p210
(dp211
g7
F1.0000648217509376
ssS'brnew0.2'
p212
(dp213
g7
F0.9981672192313036
ssS'brnew0.3'
p214
(dp215
g7
F0.9958937019326565
ssS'brnew0.4'
p216
(dp217
g7
F0.9931087376830671
ssS'brnew0.5'
p218
(dp219
g7
F0.9895674316951071
ssS'brnew0.6'
p220
(dp221
g7
F0.9847368686379417
ssS'brnew0.7'
p222
(dp223
g7
F0.97701551502675
ssssS'750'
p224
(dp225
S'cprime0.5'
p226
(dp227
S'brnew0.8'
p228
(dp229
S'weight'
p230
F1.0093910204334766
ssS'brnew0.9'
p231
(dp232
g230
F1.0412826373026827
ssS'brnew0.0'
p233
(dp234
g230
F0.9923247074355113
ssS'brnew0.1'
p235
(dp236
g230
F0.9926317425708342
ssS'brnew0.2'
p237
(dp238
g230
F0.9930167281569162
ssS'brnew0.3'
p239
(dp240
g230
F0.9935245287229847
ssS'brnew0.4'
p241
(dp242
g230
F0.9942303184243891
ssS'brnew0.5'
p243
(dp244
g230
F0.9952947149627268
ssS'brnew0.6'
p245
(dp246
g230
F0.9970837623797913
ssS'brnew0.7'
p247
(dp248
g230
F1.0006025172331288
sssS'cprime0.7'
p249
(dp250
S'brnew0.8'
p251
(dp252
g230
F1.0400095454873353
ssS'brnew0.9'
p253
(dp254
g230
F1.088492342869398
ssS'brnew0.0'
p255
(dp256
g230
F0.9951630061307526
ssS'brnew0.1'
p257
(dp258
g230
F0.9959021937636575
ssS'brnew0.2'
p259
(dp260
g230
F0.9968951655523587
ssS'brnew0.3'
p261
(dp262
g230
F0.9982719277206821
ssS'brnew0.4'
p263
(dp264
g230
F1.0002974392827162
ssS'brnew0.5'
p265
(dp266
g230
F1.0034624822386342
ssS'brnew0.6'
p267
(dp268
g230
F1.0088124077083185
ssS'brnew0.7'
p269
(dp270
g230
F1.0188080860535065
sssS'cprime0.6'
p271
(dp272
S'brnew0.8'
p273
(dp274
g230
F1.0231066416915677
ssS'brnew0.9'
p275
(dp276
g230
F1.0666829859832698
ssS'brnew0.0'
p277
(dp278
g230
F0.9935574020731625
ssS'brnew0.1'
p279
(dp280
g230
F0.9940277236902703
ssS'brnew0.2'
p281
(dp282
g230
F0.9946431585426635
ssS'brnew0.3'
p283
(dp284
g230
F0.9954860121130179
ssS'brnew0.4'
p285
(dp286
g230
F0.9967064132295808
ssS'brnew0.5'
p287
(dp288
g230
F0.9986086604982417
ssS'brnew0.6'
p289
(dp290
g230
F1.001867583221475
ssS'brnew0.7'
p291
(dp292
g230
F1.0082387813952087
sssS'cprime1.0'
p293
(dp294
S'brnew0.8'
p295
(dp296
g230
F1.089790821748542
ssS'brnew0.9'
p297
(dp298
g230
F1.1043544435040855
ssS'brnew0.0'
p299
(dp300
g230
F1.0038750787102984
ssS'brnew0.1'
p301
(dp302
g230
F1.0062464226943977
ssS'brnew0.2'
p303
(dp304
g230
F1.0093910204334766
ssS'brnew0.3'
p305
(dp306
g230
F1.0136686296331026
ssS'brnew0.4'
p307
(dp308
g230
F1.0196607881972306
ssS'brnew0.5'
p309
(dp310
g230
F1.0283291901107536
ssS'brnew0.6'
p311
(dp312
g230
F1.0412826373026827
ssS'brnew0.7'
p313
(dp314
g230
F1.0610618897607438
sssS'cprime0.4'
p315
(dp316
S'brnew0.8'
p317
(dp318
g230
F0.9999724081672825
ssS'brnew0.9'
p319
(dp320
g230
F1.0179582584345197
ssS'brnew0.0'
p321
(dp322
g230
F0.9912528724844237
ssS'brnew0.1'
p323
(dp324
g230
F0.9914871226681075
ssS'brnew0.2'
p325
(dp326
g230
F0.991756524135381
ssS'brnew0.3'
p327
(dp328
g230
F0.9920856805950785
ssS'brnew0.4'
p329
(dp330
g230
F0.9925084036227062
ssS'brnew0.5'
p331
(dp332
g230
F0.9931010042978822
ssS'brnew0.6'
p333
(dp334
g230
F0.9940277236902703
ssS'brnew0.7'
p335
(dp336
g230
F0.995748099502484
sssS'cprime0.3'
p337
(dp338
S'brnew0.8'
p339
(dp340
g230
F0.9946431585426635
ssS'brnew0.9'
p341
(dp342
g230
F1.001867583221475
ssS'brnew0.0'
p343
(dp344
g230
F0.989880130324575
ssS'brnew0.1'
p345
(dp346
g230
F0.9901591599697861
ssS'brnew0.2'
p347
(dp348
g230
F0.9904527169608773
ssS'brnew0.3'
p349
(dp350
g230
F0.9907641147917197
ssS'brnew0.4'
p351
(dp352
g230
F0.9911089778601878
ssS'brnew0.5'
p353
(dp354
g230
F0.9915147309361038
ssS'brnew0.6'
p355
(dp356
g230
F0.9920454559683288
ssS'brnew0.7'
p357
(dp358
g230
F0.9928778154116883
sssS'cprime0.2'
p359
(dp360
S'brnew0.8'
p361
(dp362
g230
F0.991756524135381
ssS'brnew0.9'
p363
(dp364
g230
F0.9940277236902703
ssS'brnew0.0'
p365
(dp366
g230
F0.9866457592706954
ssS'brnew0.1'
p367
(dp368
g230
F0.9872224578561205
ssS'brnew0.2'
p369
(dp370
g230
F0.9877969635146125
ssS'brnew0.3'
p371
(dp372
g230
F0.9883714757898943
ssS'brnew0.4'
p373
(dp374
g230
F0.9889504069752234
ssS'brnew0.5'
p375
(dp376
g230
F0.9895421388143055
ssS'brnew0.6'
p377
(dp378
g230
F0.9901591599697861
ssS'brnew0.7'
p379
(dp380
g230
F0.9908466266586718
sssS'cprime0.1'
p381
(dp382
S'brnew0.8'
p383
(dp384
g230
F0.9877969635146125
ssS'brnew0.9'
p385
(dp386
g230
F0.9901591599697861
ssS'brnew0.0'
p387
(dp388
g230
F0.9707943701717663
ssS'brnew0.1'
p389
(dp390
g230
F0.9726146026855286
ssS'brnew0.2'
p391
(dp392
g230
F0.9745090591742888
ssS'brnew0.3'
p393
(dp394
g230
F0.976493133626277
ssS'brnew0.4'
p395
(dp396
g230
F0.9785856280456198
ssS'brnew0.5'
p397
(dp398
g230
F0.9808001000833387
ssS'brnew0.6'
p399
(dp400
g230
F0.9831132684230818
ssS'brnew0.7'
p401
(dp402
g230
F0.9854728312128499
sssS'cprime0.9'
p403
(dp404
S'brnew0.8'
p405
(dp406
g230
F1.0752871572366234
ssS'brnew0.9'
p407
(dp408
g230
F1.1082176470861966
ssS'brnew0.0'
p409
(dp410
g230
F1.0001887268678338
ssS'brnew0.1'
p411
(dp412
g230
F1.001867583221475
ssS'brnew0.2'
p413
(dp414
g230
F1.0041341650783486
ssS'brnew0.3'
p415
(dp416
g230
F1.007266905870456
ssS'brnew0.4'
p417
(dp418
g230
F1.0117584439426421
ssS'brnew0.5'
p419
(dp420
g230
F1.0184690695093948
ssS'brnew0.6'
p421
(dp422
g230
F1.0289832901568052
ssS'brnew0.7'
p423
(dp424
g230
F1.04629359610241
sssS'cprime0.8'
p425
(dp426
S'brnew0.8'
p427
(dp428
g230
F1.0581113984293573
ssS'brnew0.9'
p429
(dp430
g230
F1.1028915923830525
ssS'brnew0.0'
p431
(dp432
g230
F0.9973152878502021
ssS'brnew0.1'
p433
(dp434
g230
F0.9984581857501643
ssS'brnew0.2'
p435
(dp436
g230
F0.9999724081672825
ssS'brnew0.3'
p437
(dp438
g230
F1.002146123066369
ssS'brnew0.4'
p439
(dp440
g230
F1.0052798218408965
ssS'brnew0.5'
p441
(dp442
g230
F1.0100927422388815
ssS'brnew0.6'
p443
(dp444
g230
F1.0179582584345197
ssS'brnew0.7'
p445
(dp446
g230
F1.0318166690541597
ssssS'600'
p447
(dp448
S'cprime1.0'
p449
(dp450
S'brnew0.8'
p451
(dp452
S'weight'
p453
F1.1696679392268532
ssS'brnew0.9'
p454
(dp455
g453
F1.328758981543475
ssS'brnew0.0'
p456
(dp457
g453
F1.0052236713137002
ssS'brnew0.1'
p458
(dp459
g453
F1.009114803815055
ssS'brnew0.2'
p460
(dp461
g453
F1.014135197295403
ssS'brnew0.3'
p462
(dp463
g453
F1.0208180298346359
ssS'brnew0.4'
p464
(dp465
g453
F1.0300557751581034
ssS'brnew0.5'
p466
(dp467
g453
F1.04350921926541
ssS'brnew0.6'
p468
(dp469
g453
F1.0644616714626045
ssS'brnew0.7'
p470
(dp471
g453
F1.100246279047971
sssS'cprime0.7'
p472
(dp473
S'brnew0.8'
p474
(dp475
g453
F1.0623368045918506
ssS'brnew0.9'
p476
(dp477
g453
F1.1656834947241224
ssS'brnew0.0'
p478
(dp479
g453
F0.9894004713982546
ssS'brnew0.1'
p480
(dp481
g453
F0.9908527209279308
ssS'brnew0.2'
p482
(dp483
g453
F0.9927738157383936
ssS'brnew0.3'
p484
(dp485
g453
F0.9953942086851278
ssS'brnew0.4'
p486
(dp487
g453
F0.9990820632656993
ssS'brnew0.5'
p488
(dp489
g453
F1.0045329282664004
ssS'brnew0.6'
p490
(dp491
g453
F1.0132198777734633
ssS'brnew0.7'
p492
(dp493
g453
F1.0287439176496813
sssS'cprime0.6'
p494
(dp495
S'brnew0.8'
p496
(dp497
g453
F1.0353746436644466
ssS'brnew0.9'
p498
(dp499
g453
F1.1116831922044659
ssS'brnew0.0'
p500
(dp501
g453
F0.9863925201059561
ssS'brnew0.1'
p502
(dp503
g453
F0.9872378771964118
ssS'brnew0.2'
p504
(dp505
g453
F0.9883981633617145
ssS'brnew0.3'
p506
(dp507
g453
F0.990037561947471
ssS'brnew0.4'
p508
(dp509
g453
F0.9924140647642141
ssS'brnew0.5'
p510
(dp511
g453
F0.9960120935226355
ssS'brnew0.6'
p512
(dp513
g453
F1.0018261929203829
ssS'brnew0.7'
p514
(dp515
g453
F1.0123120597444468
sssS'cprime0.5'
p516
(dp517
S'brnew0.8'
p518
(dp519
g453
F1.014135197295403
ssS'brnew0.9'
p520
(dp521
g453
F1.0644616714626045
ssS'brnew0.0'
p522
(dp523
g453
F0.9846322601916536
ssS'brnew0.1'
p524
(dp525
g453
F0.9849832494418799
ssS'brnew0.2'
p526
(dp527
g453
F0.9855161954825111
ssS'brnew0.3'
p528
(dp529
g453
F0.9863366486014007
ssS'brnew0.4'
p530
(dp531
g453
F0.9876109058547354
ssS'brnew0.5'
p532
(dp533
g453
F0.9896633939928917
ssS'brnew0.6'
p534
(dp535
g453
F0.9931397243745799
ssS'brnew0.7'
p536
(dp537
g453
F0.9996200176794847
sssS'cprime0.4'
p538
(dp539
S'brnew0.8'
p540
(dp541
g453
F0.9985453329525821
ssS'brnew0.9'
p542
(dp543
g453
F1.0274362877109622
ssS'brnew0.0'
p544
(dp545
g453
F0.984082982847139
ssS'brnew0.1'
p546
(dp547
g453
F0.9841120109537624
ssS'brnew0.2'
p548
(dp549
g453
F0.9842082492696332
ssS'brnew0.3'
p550
(dp551
g453
F0.9844172019287967
ssS'brnew0.4'
p552
(dp553
g453
F0.9848329601279008
ssS'brnew0.5'
p554
(dp555
g453
F0.9856450446934013
ssS'brnew0.6'
p556
(dp557
g453
F0.9872378771964118
ssS'brnew0.7'
p558
(dp559
g453
F0.9905498556900891
sssS'cprime0.3'
p560
(dp561
S'brnew0.8'
p562
(dp563
g453
F0.9883981633617145
ssS'brnew0.9'
p564
(dp565
g453
F1.0018261929203829
ssS'brnew0.0'
p566
(dp567
g453
F0.9843368984648808
ssS'brnew0.1'
p568
(dp569
g453
F0.9842635371782126
ssS'brnew0.2'
p570
(dp571
g453
F0.9841877780230732
ssS'brnew0.3'
p572
(dp573
g453
F0.9841198039811501
ssS'brnew0.4'
p574
(dp575
g453
F0.9840781443653742
ssS'brnew0.5'
p576
(dp577
g453
F0.984119718255455
ssS'brnew0.6'
p578
(dp579
g453
F0.9843847846420039
ssS'brnew0.7'
p580
(dp581
g453
F0.9853126730569824
sssS'cprime0.2'
p582
(dp583
S'brnew0.8'
p584
(dp585
g453
F0.9842082492696332
ssS'brnew0.9'
p586
(dp587
g453
F0.9872378771964118
ssS'brnew0.0'
p588
(dp589
g453
F0.9857033035504715
ssS'brnew0.1'
p590
(dp591
g453
F0.9853916560567529
ssS'brnew0.2'
p592
(dp593
g453
F0.9851068788791291
ssS'brnew0.3'
p594
(dp595
g453
F0.9848490999505013
ssS'brnew0.4'
p596
(dp597
g453
F0.9846297233251177
ssS'brnew0.5'
p598
(dp599
g453
F0.984439051578525
ssS'brnew0.6'
p600
(dp601
g453
F0.9842635371782126
ssS'brnew0.7'
p602
(dp603
g453
F0.984107263385115
sssS'cprime0.1'
p604
(dp605
S'brnew0.8'
p606
(dp607
g453
F0.9851068788791291
ssS'brnew0.9'
p608
(dp609
g453
F0.9842635371782126
ssS'brnew0.0'
p610
(dp611
g453
F0.9931870890047221
ssS'brnew0.1'
p612
(dp613
g453
F0.992749668118646
ssS'brnew0.2'
p614
(dp615
g453
F0.9921521719978974
ssS'brnew0.3'
p616
(dp617
g453
F0.9913625755891773
ssS'brnew0.4'
p618
(dp619
g453
F0.9903709097122603
ssS'brnew0.5'
p620
(dp621
g453
F0.989180087281752
ssS'brnew0.6'
p622
(dp623
g453
F0.9878201586764229
ssS'brnew0.7'
p624
(dp625
g453
F0.9863866757129173
sssS'cprime0.9'
p626
(dp627
S'brnew0.8'
p628
(dp629
g453
F1.1307721801995383
ssS'brnew0.9'
p630
(dp631
g453
F1.2775524668881837
ssS'brnew0.0'
p632
(dp633
g453
F0.9988628768183329
ssS'brnew0.1'
p634
(dp635
g453
F1.0018261929203829
ssS'brnew0.2'
p636
(dp637
g453
F1.005652783125406
ssS'brnew0.3'
p638
(dp639
g453
F1.010762836071286
ssS'brnew0.4'
p640
(dp641
g453
F1.0178483478261329
ssS'brnew0.5'
p642
(dp643
g453
F1.0282179507201437
ssS'brnew0.6'
p644
(dp645
g453
F1.0445369808447083
ssS'brnew0.7'
p646
(dp647
g453
F1.073003745796644
sssS'cprime0.8'
p648
(dp649
S'brnew0.8'
p650
(dp651
g453
F1.094509960754113
ssS'brnew0.9'
p652
(dp653
g453
F1.222241613634007
ssS'brnew0.0'
p654
(dp655
g453
F0.9935855288636731
ssS'brnew0.1'
p656
(dp657
g453
F0.9957294625892771
ssS'brnew0.2'
p658
(dp659
g453
F0.9985453329525821
ssS'brnew0.3'
p660
(dp661
g453
F1.0022952541810295
ssS'brnew0.4'
p662
(dp663
g453
F1.0075458842145042
ssS'brnew0.5'
p664
(dp665
g453
F1.0152413311748623
ssS'brnew0.6'
p666
(dp667
g453
F1.0274362877109622
ssS'brnew0.7'
p668
(dp669
g453
F1.049023345972291
ssssS'300'
p670
(dp671
S'cprime1.0'
p672
(dp673
S'brnew0.8'
p674
(dp675
S'weight'
p676
F1.2344616134285995
ssS'brnew0.9'
p677
(dp678
g676
F1.5149740078990315
ssS'brnew0.0'
p679
(dp680
g676
F1.0020087699327895
ssS'brnew0.1'
p681
(dp682
g676
F1.008427525447419
ssS'brnew0.2'
p683
(dp684
g676
F1.0165157144680508
ssS'brnew0.3'
p685
(dp686
g676
F1.0269193749397352
ssS'brnew0.4'
p687
(dp688
g676
F1.0407761136428677
ssS'brnew0.5'
p689
(dp690
g676
F1.060273680818856
ssS'brnew0.6'
p691
(dp692
g676
F1.0894674821820178
ssS'brnew0.7'
p693
(dp694
g676
F1.1380153314199895
sssS'cprime0.7'
p695
(dp696
S'brnew0.8'
p697
(dp698
g676
F1.0865459346631028
ssS'brnew0.9'
p699
(dp700
g676
F1.2287101180698643
ssS'brnew0.0'
p701
(dp702
g676
F0.972616037409244
ssS'brnew0.1'
p703
(dp704
g676
F0.9757470376438439
ssS'brnew0.2'
p705
(dp706
g676
F0.9796524182334753
ssS'brnew0.3'
p707
(dp708
g676
F0.9846707349259718
ssS'brnew0.4'
p709
(dp710
g676
F0.9913787524557479
ssS'brnew0.5'
p711
(dp712
g676
F1.0007757760117981
ssS'brnew0.6'
p713
(dp714
g676
F1.0150581340329592
ssS'brnew0.7'
p715
(dp716
g676
F1.0388480486205869
sssS'cprime0.6'
p717
(dp718
S'brnew0.8'
p719
(dp720
g676
F1.0485824532989942
ssS'brnew0.9'
p721
(dp722
g676
F1.153543169922394
ssS'brnew0.0'
p723
(dp724
g676
F0.9651755582618357
ssS'brnew0.1'
p725
(dp726
g676
F0.9674763768286528
ssS'brnew0.2'
p727
(dp728
g676
F0.9703358552628503
ssS'brnew0.3'
p729
(dp730
g676
F0.9740132573587763
ssS'brnew0.4'
p731
(dp732
g676
F0.9789315939014409
ssS'brnew0.5'
p733
(dp734
g676
F0.9858270544079485
ssS'brnew0.6'
p735
(dp736
g676
F0.9961939691968456
ssS'brnew0.7'
p737
(dp738
g676
F1.0135845496781182
sssS'cprime0.5'
p739
(dp740
S'brnew0.8'
p741
(dp742
g676
F1.0165157144680508
ssS'brnew0.9'
p743
(dp744
g676
F1.0894674821820178
ssS'brnew0.0'
p745
(dp746
g676
F0.9587380541673848
ssS'brnew0.1'
p747
(dp748
g676
F0.9604019893684898
ssS'brnew0.2'
p749
(dp750
g676
F0.9624341579432788
ssS'brnew0.3'
p751
(dp752
g676
F0.9650202115892182
ssS'brnew0.4'
p753
(dp754
g676
F0.9684362618784884
ssS'brnew0.5'
p755
(dp756
g676
F0.9731998668582479
ssS'brnew0.6'
p757
(dp758
g676
F0.9803633980841959
ssS'brnew0.7'
p759
(dp760
g676
F0.9923417109839722
sssS'cprime0.4'
p761
(dp762
S'brnew0.8'
p763
(dp764
g676
F0.9904071741219657
ssS'brnew0.9'
p765
(dp766
g676
F1.0369070616505651
ssS'brnew0.0'
p767
(dp768
g676
F0.9529597008359091
ssS'brnew0.1'
p769
(dp770
g676
F0.9541648408851351
ssS'brnew0.2'
p771
(dp772
g676
F0.9556376111268947
ssS'brnew0.3'
p773
(dp774
g676
F0.9574299772449866
ssS'brnew0.4'
p775
(dp776
g676
F0.9597284080215926
ssS'brnew0.5'
p777
(dp778
g676
F0.9628701873117944
ssS'brnew0.6'
p779
(dp780
g676
F0.9674763768286528
ssS'brnew0.7'
p781
(dp782
g676
F0.9751021417104981
sssS'cprime0.3'
p783
(dp784
S'brnew0.8'
p785
(dp786
g676
F0.9703358552628503
ssS'brnew0.9'
p787
(dp788
g676
F0.9961939691968456
ssS'brnew0.0'
p789
(dp790
g676
F0.9474386121453245
ssS'brnew0.1'
p791
(dp792
g676
F0.9483274494285873
ssS'brnew0.2'
p793
(dp794
g676
F0.949362181688806
ssS'brnew0.3'
p795
(dp796
g676
F0.9506561498099233
ssS'brnew0.4'
p797
(dp798
g676
F0.9522534805721169
ssS'brnew0.5'
p799
(dp800
g676
F0.9543370369512372
ssS'brnew0.6'
p801
(dp802
g676
F0.9572171226638572
ssS'brnew0.7'
p803
(dp804
g676
F0.9617105242920414
sssS'cprime0.2'
p805
(dp806
S'brnew0.8'
p807
(dp808
g676
F0.9556376111268947
ssS'brnew0.9'
p809
(dp810
g676
F0.9674763768286528
ssS'brnew0.0'
p811
(dp812
g676
F0.9434732623654675
ssS'brnew0.1'
p813
(dp814
g676
F0.9436546648845925
ssS'brnew0.2'
p815
(dp816
g676
F0.9440497673347861
ssS'brnew0.3'
p817
(dp818
g676
F0.944587682186233
ssS'brnew0.4'
p819
(dp820
g676
F0.9453519008048556
ssS'brnew0.5'
p821
(dp822
g676
F0.9465438035915263
ssS'brnew0.6'
p823
(dp824
g676
F0.9483274494285873
ssS'brnew0.7'
p825
(dp826
g676
F0.9510028890047387
sssS'cprime0.1'
p827
(dp828
S'brnew0.8'
p829
(dp830
g676
F0.9440497673347861
ssS'brnew0.9'
p831
(dp832
g676
F0.9483274494285873
ssS'brnew0.0'
p833
(dp834
g676
F0.941808549095361
ssS'brnew0.1'
p835
(dp836
g676
F0.9422496965209007
ssS'brnew0.2'
p837
(dp838
g676
F0.9424904052561072
ssS'brnew0.3'
p839
(dp840
g676
F0.9426510773284846
ssS'brnew0.4'
p841
(dp842
g676
F0.9428841878478662
ssS'brnew0.5'
p843
(dp844
g676
F0.9430445358954518
ssS'brnew0.6'
p845
(dp846
g676
F0.9430847342948115
ssS'brnew0.7'
p847
(dp848
g676
F0.9432523832412789
sssS'cprime0.9'
p849
(dp850
S'brnew0.8'
p851
(dp852
g676
F1.1796229641404685
ssS'brnew0.9'
p853
(dp854
g676
F1.4101580413469403
ssS'brnew0.0'
p855
(dp856
g676
F0.9910085035040392
ssS'brnew0.1'
p857
(dp858
g676
F0.9961939691968456
ssS'brnew0.2'
p859
(dp860
g676
F1.0026817733639053
ssS'brnew0.3'
p861
(dp862
g676
F1.0111200939307212
ssS'brnew0.4'
p863
(dp864
g676
F1.022339277401594
ssS'brnew0.5'
p865
(dp866
g676
F1.0380735198088507
ssS'brnew0.6'
p867
(dp868
g676
F1.0617067464855034
ssS'brnew0.7'
p869
(dp870
g676
F1.1011566261736956
sssS'cprime0.8'
p871
(dp872
S'brnew0.8'
p873
(dp874
g676
F1.1302695888046062
ssS'brnew0.9'
p875
(dp876
g676
F1.3144789969307442
ssS'brnew0.0'
p877
(dp878
g676
F0.9812204562185212
ssS'brnew0.1'
p879
(dp880
g676
F0.9853267229491455
ssS'brnew0.2'
p881
(dp882
g676
F0.9904071741219657
ssS'brnew0.3'
p883
(dp884
g676
F0.9970260504805752
ssS'brnew0.4'
p885
(dp886
g676
F1.0058607644915658
ssS'brnew0.5'
p887
(dp888
g676
F1.0182666728727854
ssS'brnew0.6'
p889
(dp890
g676
F1.0369070616505651
ssS'brnew0.7'
p891
(dp892
g676
F1.0680481163337845
ssssS'350'
p893
(dp894
S'cprime0.5'
p895
(dp896
S'brnew0.8'
p897
(dp898
S'weight'
p899
F1.0226064568386333
ssS'brnew0.9'
p900
(dp901
g899
F1.119711257152237
ssS'brnew0.0'
p902
(dp903
g899
F0.933857785879105
ssS'brnew0.1'
p904
(dp905
g899
F0.9365482997178148
ssS'brnew0.2'
p906
(dp907
g899
F0.9398979619599784
ssS'brnew0.3'
p908
(dp909
g899
F0.9441873294082405
ssS'brnew0.4'
p910
(dp911
g899
F0.9498449017354189
ssS'brnew0.5'
p912
(dp913
g899
F0.9576294713570978
ssS'brnew0.6'
p914
(dp915
g899
F0.9690255585272167
ssS'brnew0.7'
p916
(dp917
g899
F0.9874340817502381
sssS'cprime0.7'
p918
(dp919
S'brnew0.8'
p920
(dp921
g899
F1.1160068403634797
ssS'brnew0.9'
p922
(dp923
g899
F1.2850837229617842
ssS'brnew0.0'
p924
(dp925
g899
F0.9567079647874244
ssS'brnew0.1'
p926
(dp927
g899
F0.9617162398146049
ssS'brnew0.2'
p928
(dp929
g899
F0.9679005311083301
ssS'brnew0.3'
p930
(dp931
g899
F0.9757311466800621
ssS'brnew0.4'
p932
(dp933
g899
F0.9859949847284206
ssS'brnew0.5'
p934
(dp935
g899
F1.0000847539447373
ssS'brnew0.6'
p936
(dp937
g899
F1.0205400520744277
ssS'brnew0.7'
p938
(dp939
g899
F1.0535294630216725
sssS'cprime0.6'
p940
(dp941
S'brnew0.8'
p942
(dp943
g899
F1.0666074828582846
ssS'brnew0.9'
p944
(dp945
g899
F1.198178031597092
ssS'brnew0.0'
p946
(dp947
g899
F0.9444664648737293
ssS'brnew0.1'
p948
(dp949
g899
F0.9482686388116974
ssS'brnew0.2'
p950
(dp951
g899
F0.9529750737460323
ssS'brnew0.3'
p952
(dp953
g899
F0.9589527959093921
ssS'brnew0.4'
p954
(dp955
g899
F0.9667804419982258
ssS'brnew0.5'
p956
(dp957
g899
F0.9775034991175721
ssS'brnew0.6'
p958
(dp959
g899
F0.9931921588775139
ssS'brnew0.7'
p960
(dp961
g899
F1.0184699640304775
sssS'cprime1.0'
p962
(dp963
S'brnew0.8'
p964
(dp965
g899
F1.2915576264256907
ssS'brnew0.9'
p966
(dp967
g899
F1.5882886658351627
ssS'brnew0.0'
p968
(dp969
g899
F1.0017354802403302
ssS'brnew0.1'
p970
(dp971
g899
F1.011094700347779
ssS'brnew0.2'
p972
(dp973
g899
F1.0226064568386333
ssS'brnew0.3'
p974
(dp975
g899
F1.037163549175037
ssS'brnew0.4'
p976
(dp977
g899
F1.0561508825074606
ssS'brnew0.5'
p978
(dp979
g899
F1.0820784588843346
ssS'brnew0.6'
p980
(dp981
g899
F1.119711257152237
ssS'brnew0.7'
p982
(dp983
g899
F1.1796240212668252
sssS'cprime0.4'
p984
(dp985
S'brnew0.8'
p986
(dp987
g899
F0.9845280732416092
ssS'brnew0.9'
p988
(dp989
g899
F1.0508726481772237
ssS'brnew0.0'
p990
(dp991
g899
F0.9253278626998971
ssS'brnew0.1'
p992
(dp993
g899
F0.9269505436022663
ssS'brnew0.2'
p994
(dp995
g899
F0.9290492886155609
ssS'brnew0.3'
p996
(dp997
g899
F0.9317924264591423
ssS'brnew0.4'
p998
(dp999
g899
F0.9354744435998849
ssS'brnew0.5'
p1000
(dp1001
g899
F0.9406299579803714
ssS'brnew0.6'
p1002
(dp1003
g899
F0.9482686388116974
ssS'brnew0.7'
p1004
(dp1005
g899
F0.9606964411628598
sssS'cprime0.3'
p1006
(dp1007
S'brnew0.8'
p1008
(dp1009
g899
F0.9529750737460323
ssS'brnew0.9'
p1010
(dp1011
g899
F0.9931921588775139
ssS'brnew0.0'
p1012
(dp1013
g899
F0.9199922255876084
ssS'brnew0.1'
p1014
(dp1015
g899
F0.9205513954057506
ssS'brnew0.2'
p1016
(dp1017
g899
F0.9213865647630303
ssS'brnew0.3'
p1018
(dp1019
g899
F0.9226229859980717
ssS'brnew0.4'
p1020
(dp1021
g899
F0.9244349602365477
ssS'brnew0.5'
p1022
(dp1023
g899
F0.927167690538705
ssS'brnew0.6'
p1024
(dp1025
g899
F0.9314476011204232
ssS'brnew0.7'
p1026
(dp1027
g899
F0.938698370093999
sssS'cprime0.2'
p1028
(dp1029
S'brnew0.8'
p1030
(dp1031
g899
F0.9290492886155609
ssS'brnew0.9'
p1032
(dp1033
g899
F0.9482686388116974
ssS'brnew0.0'
p1034
(dp1035
g899
F0.9201497648809697
ssS'brnew0.1'
p1036
(dp1037
g899
F0.9198058297906124
ssS'brnew0.2'
p1038
(dp1039
g899
F0.919473326281265
ssS'brnew0.3'
p1040
(dp1041
g899
F0.9192563885359711
ssS'brnew0.4'
p1042
(dp1043
g899
F0.9192488873364116
ssS'brnew0.5'
p1044
(dp1045
g899
F0.9195552444213347
ssS'brnew0.6'
p1046
(dp1047
g899
F0.9205513954057506
ssS'brnew0.7'
p1048
(dp1049
g899
F0.9230070310416901
sssS'cprime0.1'
p1050
(dp1051
S'brnew0.8'
p1052
(dp1053
g899
F0.919473326281265
ssS'brnew0.9'
p1054
(dp1055
g899
F0.9205513954057506
ssS'brnew0.0'
p1056
(dp1057
g899
F0.9229587412591586
ssS'brnew0.1'
p1058
(dp1059
g899
F0.9229613579199905
ssS'brnew0.2'
p1060
(dp1061
g899
F0.9229240842835132
ssS'brnew0.3'
p1062
(dp1063
g899
F0.9228241542917348
ssS'brnew0.4'
p1064
(dp1065
g899
F0.9227785282200178
ssS'brnew0.5'
p1066
(dp1067
g899
F0.922479549915886
ssS'brnew0.6'
p1068
(dp1069
g899
F0.9219153847581866
ssS'brnew0.7'
p1070
(dp1071
g899
F0.9208377768488716
sssS'cprime0.9'
p1072
(dp1073
S'brnew0.8'
p1074
(dp1075
g899
F1.228878824339107
ssS'brnew0.9'
p1076
(dp1077
g899
F1.4809155397832747
ssS'brnew0.0'
p1078
(dp1079
g899
F0.9854203487396409
ssS'brnew0.1'
p1080
(dp1081
g899
F0.9931921588775139
ssS'brnew0.2'
p1082
(dp1083
g899
F1.0028080555902623
ssS'brnew0.3'
p1084
(dp1085
g899
F1.0149241893166512
ssS'brnew0.4'
p1086
(dp1087
g899
F1.030788143542182
ssS'brnew0.5'
p1088
(dp1089
g899
F1.0524596040763838
ssS'brnew0.6'
p1090
(dp1091
g899
F1.0840020483538975
ssS'brnew0.7'
p1092
(dp1093
g899
F1.1343899327741256
sssS'cprime0.8'
p1094
(dp1095
S'brnew0.8'
p1096
(dp1097
g899
F1.170247306501468
ssS'brnew0.9'
p1098
(dp1099
g899
F1.3795888759609747
ssS'brnew0.0'
p1100
(dp1101
g899
F0.9703868951697806
ssS'brnew0.1'
p1102
(dp1103
g899
F0.9767207141804776
ssS'brnew0.2'
p1104
(dp1105
g899
F0.9845280732416092
ssS'brnew0.3'
p1106
(dp1107
g899
F0.9944171322626552
ssS'brnew0.4'
p1108
(dp1109
g899
F1.0073586287923804
ssS'brnew0.5'
p1110
(dp1111
g899
F1.025054088398059
ssS'brnew0.6'
p1112
(dp1113
g899
F1.0508726481772237
ssS'brnew0.7'
p1114
(dp1115
g899
F1.0922746335542561
ssssS'700'
p1116
(dp1117
S'cprime1.0'
p1118
(dp1119
S'brnew0.8'
p1120
(dp1121
S'weight'
p1122
F1.1265728921973273
ssS'brnew0.9'
p1123
(dp1124
g1122
F1.197876741570143
ssS'brnew0.0'
p1125
(dp1126
g1122
F1.0042408746828633
ssS'brnew0.1'
p1127
(dp1128
g1122
F1.00709579051729
ssS'brnew0.2'
p1129
(dp1130
g1122
F1.0108922952294752
ssS'brnew0.3'
p1131
(dp1132
g1122
F1.0160837200043569
ssS'brnew0.4'
p1133
(dp1134
g1122
F1.0234338465308088
ssS'brnew0.5'
p1135
(dp1136
g1122
F1.0342858508137527
ssS'brnew0.6'
p1137
(dp1138
g1122
F1.0511344812533037
ssS'brnew0.7'
p1139
(dp1140
g1122
F1.0788382895560655
sssS'cprime0.7'
p1141
(dp1142
S'brnew0.8'
p1143
(dp1144
g1122
F1.0494406721634912
ssS'brnew0.9'
p1145
(dp1146
g1122
F1.1240754879964003
ssS'brnew0.0'
p1147
(dp1148
g1122
F0.9941487265627671
ssS'brnew0.1'
p1149
(dp1150
g1122
F0.9948919398413889
ssS'brnew0.2'
p1151
(dp1152
g1122
F0.9959722133231584
ssS'brnew0.3'
p1153
(dp1154
g1122
F0.9975571229857859
ssS'brnew0.4'
p1155
(dp1156
g1122
F0.999949191459385
ssS'brnew0.5'
p1157
(dp1158
g1122
F1.003745119920965
ssS'brnew0.6'
p1159
(dp1160
g1122
F1.0101932493525727
ssS'brnew0.7'
p1161
(dp1162
g1122
F1.0223809603289626
sssS'cprime0.6'
p1163
(dp1164
S'brnew0.8'
p1165
(dp1166
g1122
F1.0277131450006305
ssS'brnew0.9'
p1167
(dp1168
g1122
F1.0872895753293514
ssS'brnew0.0'
p1169
(dp1170
g1122
F0.9929434268340924
ssS'brnew0.1'
p1171
(dp1172
g1122
F0.9932088008655593
ssS'brnew0.2'
p1173
(dp1174
g1122
F0.9936810757371758
ssS'brnew0.3'
p1175
(dp1176
g1122
F0.9944638972738186
ssS'brnew0.4'
p1177
(dp1178
g1122
F0.9957652626202703
ssS'brnew0.5'
p1179
(dp1180
g1122
F0.9979428268275483
ssS'brnew0.6'
p1181
(dp1182
g1122
F1.0018293108606178
ssS'brnew0.7'
p1183
(dp1184
g1122
F1.0094987416111896
sssS'cprime0.5'
p1185
(dp1186
S'brnew0.8'
p1187
(dp1188
g1122
F1.0108922952294752
ssS'brnew0.9'
p1189
(dp1190
g1122
F1.0511344812533037
ssS'brnew0.0'
p1191
(dp1192
g1122
F0.9929938714204293
ssS'brnew0.1'
p1193
(dp1194
g1122
F0.9928392204398464
ssS'brnew0.2'
p1195
(dp1196
g1122
F0.9927994548165208
ssS'brnew0.3'
p1197
(dp1198
g1122
F0.9929300108879686
ssS'brnew0.4'
p1199
(dp1200
g1122
F0.993348824009764
ssS'brnew0.5'
p1201
(dp1202
g1122
F0.9942754166812972
ssS'brnew0.6'
p1203
(dp1204
g1122
F0.9961869574093115
ssS'brnew0.7'
p1205
(dp1206
g1122
F1.0003098192014686
sssS'cprime0.4'
p1207
(dp1208
S'brnew0.8'
p1209
(dp1210
g1122
F0.9995874576512032
ssS'brnew0.9'
p1211
(dp1212
g1122
F1.0213344893568213
ssS'brnew0.0'
p1213
(dp1214
g1122
F0.9946843868416799
ssS'brnew0.1'
p1215
(dp1216
g1122
F0.9941501167977741
ssS'brnew0.2'
p1217
(dp1218
g1122
F0.9936441137421375
ssS'brnew0.3'
p1219
(dp1220
g1122
F0.9932040118016178
ssS'brnew0.4'
p1221
(dp1222
g1122
F0.9928854631203919
ssS'brnew0.5'
p1223
(dp1224
g1122
F0.9928057715447605
ssS'brnew0.6'
p1225
(dp1226
g1122
F0.9932088008655593
ssS'brnew0.7'
p1227
(dp1228
g1122
F0.9947317076242931
sssS'cprime0.3'
p1229
(dp1230
S'brnew0.8'
p1231
(dp1232
g1122
F0.9936810757371758
ssS'brnew0.9'
p1233
(dp1234
g1122
F1.0018293108606178
ssS'brnew0.0'
p1235
(dp1236
g1122
F0.9986750585243956
ssS'brnew0.1'
p1237
(dp1238
g1122
F0.9978456483397427
ssS'brnew0.2'
p1239
(dp1240
g1122
F0.9969579885886876
ssS'brnew0.3'
p1241
(dp1242
g1122
F0.9960197913620438
ssS'brnew0.4'
p1243
(dp1244
g1122
F0.9950502768627109
ssS'brnew0.5'
p1245
(dp1246
g1122
F0.9940928974004942
ssS'brnew0.6'
p1247
(dp1248
g1122
F0.99324816718322
ssS'brnew0.7'
p1249
(dp1250
g1122
F0.9927977932707148
sssS'cprime0.2'
p1251
(dp1252
S'brnew0.8'
p1253
(dp1254
g1122
F0.9936441137421375
ssS'brnew0.9'
p1255
(dp1256
g1122
F0.9932088008655593
ssS'brnew0.0'
p1257
(dp1258
g1122
F1.0046568244780267
ssS'brnew0.1'
p1259
(dp1260
g1122
F1.0040466159304602
ssS'brnew0.2'
p1261
(dp1262
g1122
F1.0032726603408693
ssS'brnew0.3'
p1263
(dp1264
g1122
F1.0023030533638704
ssS'brnew0.4'
p1265
(dp1266
g1122
F1.0010980919600938
ssS'brnew0.5'
p1267
(dp1268
g1122
F0.9996238502367508
ssS'brnew0.6'
p1269
(dp1270
g1122
F0.9978456483397427
ssS'brnew0.7'
p1271
(dp1272
g1122
F0.9957790516636881
sssS'cprime0.1'
p1273
(dp1274
S'brnew0.8'
p1275
(dp1276
g1122
F1.0032726603408693
ssS'brnew0.9'
p1277
(dp1278
g1122
F0.9978456483397427
ssS'brnew0.0'
p1279
(dp1280
g1122
F1.0066541076917472
ssS'brnew0.1'
p1281
(dp1282
g1122
F1.006547343820075
ssS'brnew0.2'
p1283
(dp1284
g1122
F1.0064922021570166
ssS'brnew0.3'
p1285
(dp1286
g1122
F1.006484015329015
ssS'brnew0.4'
p1287
(dp1288
g1122
F1.0065062687398065
ssS'brnew0.5'
p1289
(dp1290
g1122
F1.006492428315093
ssS'brnew0.6'
p1291
(dp1292
g1122
F1.0062874365772077
ssS'brnew0.7'
p1293
(dp1294
g1122
F1.005505321114899
sssS'cprime0.9'
p1295
(dp1296
S'brnew0.8'
p1297
(dp1298
g1122
F1.1008995677295803
ssS'brnew0.9'
p1299
(dp1300
g1122
F1.1816335269413865
ssS'brnew0.0'
p1301
(dp1302
g1122
F0.9998047830234161
ssS'brnew0.1'
p1303
(dp1304
g1122
F1.0018293108606178
ssS'brnew0.2'
p1305
(dp1306
g1122
F1.0045505874127671
ssS'brnew0.3'
p1307
(dp1308
g1122
F1.0083280249028703
ssS'brnew0.4'
p1309
(dp1310
g1122
F1.0137602175941745
ssS'brnew0.5'
p1311
(dp1312
g1122
F1.021962933152639
ssS'brnew0.6'
p1313
(dp1314
g1122
F1.0351167577184712
ssS'brnew0.7'
p1315
(dp1316
g1122
F1.057898922855446
sssS'cprime0.8'
p1317
(dp1318
S'brnew0.8'
p1319
(dp1320
g1122
F1.0745193197585021
ssS'brnew0.9'
p1321
(dp1322
g1122
F1.1565583937103665
ssS'brnew0.0'
p1323
(dp1324
g1122
F0.9964462900760088
ssS'brnew0.1'
p1325
(dp1326
g1122
F0.9977703081509992
ssS'brnew0.2'
p1327
(dp1328
g1122
F0.9995874576512032
ssS'brnew0.3'
p1329
(dp1330
g1122
F1.0021608931666939
ssS'brnew0.4'
p1331
(dp1332
g1122
F1.0059305264995624
ssS'brnew0.5'
p1333
(dp1334
g1122
F1.011740753459651
ssS'brnew0.6'
p1335
(dp1336
g1122
F1.0213344893568213
ssS'brnew0.7'
p1337
(dp1338
g1122
F1.0387403980667567
ssssS'550'
p1339
(dp1340
S'cprime0.5'
p1341
(dp1342
S'brnew0.8'
p1343
(dp1344
S'weight'
p1345
F1.0155103362284104
ssS'brnew0.9'
p1346
(dp1347
g1345
F1.0703582971143315
ssS'brnew0.0'
p1348
(dp1349
g1345
F0.9798688061352043
ssS'brnew0.1'
p1350
(dp1351
g1345
F0.9805731243987256
ssS'brnew0.2'
p1352
(dp1353
g1345
F0.9815171690885384
ssS'brnew0.3'
p1354
(dp1355
g1345
F0.9828049337482787
ssS'brnew0.4'
p1356
(dp1357
g1345
F0.9846184515486858
ssS'brnew0.5'
p1358
(dp1359
g1345
F0.9872983203155046
ssS'brnew0.6'
p1360
(dp1361
g1345
F0.991568835486029
ssS'brnew0.7'
p1362
(dp1363
g1345
F0.9991514377904643
sssS'cprime0.7'
p1364
(dp1365
S'brnew0.8'
p1366
(dp1367
g1345
F1.0680646403977976
ssS'brnew0.9'
p1368
(dp1369
g1345
F1.180811895742114
ssS'brnew0.0'
p1370
(dp1371
g1345
F0.9869683209692176
ssS'brnew0.1'
p1372
(dp1373
g1345
F0.9887879329970907
ssS'brnew0.2'
p1374
(dp1375
g1345
F0.991133839439397
ssS'brnew0.3'
p1376
(dp1377
g1345
F0.9942361955026088
ssS'brnew0.4'
p1378
(dp1379
g1345
F0.998519148722477
ssS'brnew0.5'
p1380
(dp1381
g1345
F1.0047383793422517
ssS'brnew0.6'
p1382
(dp1383
g1345
F1.014491403714629
ssS'brnew0.7'
p1384
(dp1385
g1345
F1.031614584862756
sssS'cprime0.6'
p1386
(dp1387
S'brnew0.8'
p1388
(dp1389
g1345
F1.0388550912747898
ssS'brnew0.9'
p1390
(dp1391
g1345
F1.1214009558045943
ssS'brnew0.0'
p1392
(dp1393
g1345
F0.9828889383521147
ssS'brnew0.1'
p1394
(dp1395
g1345
F0.9840992450633456
ssS'brnew0.2'
p1396
(dp1397
g1345
F0.9856712326203034
ssS'brnew0.3'
p1398
(dp1399
g1345
F0.9877749754620783
ssS'brnew0.4'
p1400
(dp1401
g1345
F0.9906929074573416
ssS'brnew0.5'
p1402
(dp1403
g1345
F0.994960247931786
ssS'brnew0.6'
p1404
(dp1405
g1345
F1.0016579182656398
ssS'brnew0.7'
p1406
(dp1407
g1345
F1.0134731095843252
sssS'cprime1.0'
p1408
(dp1409
S'brnew0.8'
p1410
(dp1411
g1345
F1.1852665388250108
ssS'brnew0.9'
p1412
(dp1413
g1345
F1.3767401381383595
ssS'brnew0.0'
p1414
(dp1415
g1345
F1.0055180678778166
ssS'brnew0.1'
p1416
(dp1417
g1345
F1.009908562919551
ssS'brnew0.2'
p1418
(dp1419
g1345
F1.0155103362284104
ssS'brnew0.3'
p1420
(dp1421
g1345
F1.022905780884528
ssS'brnew0.4'
p1422
(dp1423
g1345
F1.0330497382198183
ssS'brnew0.5'
p1424
(dp1425
g1345
F1.0476979438935143
ssS'brnew0.6'
p1426
(dp1427
g1345
F1.0703582971143315
ssS'brnew0.7'
p1428
(dp1429
g1345
F1.108996112157566
sssS'cprime0.4'
p1430
(dp1431
S'brnew0.8'
p1432
(dp1433
g1345
F0.9979077861228065
ssS'brnew0.9'
p1434
(dp1435
g1345
F1.030178964679005
ssS'brnew0.0'
p1436
(dp1437
g1345
F0.9779587664172966
ssS'brnew0.1'
p1438
(dp1439
g1345
F0.9782720142243744
ssS'brnew0.2'
p1440
(dp1441
g1345
F0.9787139984985289
ssS'brnew0.3'
p1442
(dp1443
g1345
F0.9793521264869911
ssS'brnew0.4'
p1444
(dp1445
g1345
F0.980289502995262
ssS'brnew0.5'
p1446
(dp1447
g1345
F0.981731952424782
ssS'brnew0.6'
p1448
(dp1449
g1345
F0.9840992450633456
ssS'brnew0.7'
p1450
(dp1451
g1345
F0.9884163806148553
sssS'cprime0.3'
p1452
(dp1453
S'brnew0.8'
p1454
(dp1455
g1345
F0.9856712326203034
ssS'brnew0.9'
p1456
(dp1457
g1345
F1.0016579182656398
ssS'brnew0.0'
p1458
(dp1459
g1345
F0.9775107522950128
ssS'brnew0.1'
p1460
(dp1461
g1345
F0.9774483017461117
ssS'brnew0.2'
p1462
(dp1463
g1345
F0.9774471950286402
ssS'brnew0.3'
p1464
(dp1465
g1345
F0.9775511022427111
ssS'brnew0.4'
p1466
(dp1467
g1345
F0.9778072118763296
ssS'brnew0.5'
p1468
(dp1469
g1345
F0.9783118167244881
ssS'brnew0.6'
p1470
(dp1471
g1345
F0.9792664367458136
ssS'brnew0.7'
p1472
(dp1473
g1345
F0.9811731706333133
sssS'cprime0.2'
p1474
(dp1475
S'brnew0.8'
p1476
(dp1477
g1345
F0.9787139984985289
ssS'brnew0.9'
p1478
(dp1479
g1345
F0.9840992450633456
ssS'brnew0.0'
p1480
(dp1481
g1345
F0.9797050290303526
ssS'brnew0.1'
p1482
(dp1483
g1345
F0.9793110904342712
ssS'brnew0.2'
p1484
(dp1485
g1345
F0.9788850968297227
ssS'brnew0.3'
p1486
(dp1487
g1345
F0.9784415901357931
ssS'brnew0.4'
p1488
(dp1489
g1345
F0.9780199305475826
ssS'brnew0.5'
p1490
(dp1491
g1345
F0.9776580436599782
ssS'brnew0.6'
p1492
(dp1493
g1345
F0.9774483017461117
ssS'brnew0.7'
p1494
(dp1495
g1345
F0.9775993999522617
sssS'cprime0.1'
p1496
(dp1497
S'brnew0.8'
p1498
(dp1499
g1345
F0.9788850968297227
ssS'brnew0.9'
p1500
(dp1501
g1345
F0.9774483017461117
ssS'brnew0.0'
p1502
(dp1503
g1345
F0.9799500788248531
ssS'brnew0.1'
p1504
(dp1505
g1345
F0.9805176366087571
ssS'brnew0.2'
p1506
(dp1507
g1345
F0.9810126084770281
ssS'brnew0.3'
p1508
(dp1509
g1345
F0.9814133646180765
ssS'brnew0.4'
p1510
(dp1511
g1345
F0.9816605431027146
ssS'brnew0.5'
p1512
(dp1513
g1345
F0.9816624330800858
ssS'brnew0.6'
p1514
(dp1515
g1345
F0.9812841098406468
ssS'brnew0.7'
p1516
(dp1517
g1345
F0.9803856604094431
sssS'cprime0.9'
p1518
(dp1519
S'brnew0.8'
p1520
(dp1521
g1345
F1.1422235376435286
ssS'brnew0.9'
p1522
(dp1523
g1345
F1.3114880040705201
ssS'brnew0.0'
p1524
(dp1525
g1345
F0.9982698954997025
ssS'brnew0.1'
p1526
(dp1527
g1345
F1.0016579182656398
ssS'brnew0.2'
p1528
(dp1529
g1345
F1.0060068288379016
ssS'brnew0.3'
p1530
(dp1531
g1345
F1.0117465207178296
ssS'brnew0.4'
p1532
(dp1533
g1345
F1.0196274614458984
ssS'brnew0.5'
p1534
(dp1535
g1345
F1.0310401161409923
ssS'brnew0.6'
p1536
(dp1537
g1345
F1.0488145939084146
ssS'brnew0.7'
p1538
(dp1539
g1345
F1.0795725715470847
sssS'cprime0.8'
p1540
(dp1541
S'brnew0.8'
p1542
(dp1543
g1345
F1.10278823919399
ssS'brnew0.9'
p1544
(dp1545
g1345
F1.2452628259339675
ssS'brnew0.0'
p1546
(dp1547
g1345
F0.9920928009823251
ssS'brnew0.1'
p1548
(dp1549
g1345
F0.9946354994542239
ssS'brnew0.2'
p1550
(dp1551
g1345
F0.9979077861228065
ssS'brnew0.3'
p1552
(dp1553
g1345
F1.0022087586454886
ssS'brnew0.4'
p1554
(dp1555
g1345
F1.0081360886189177
ssS'brnew0.5'
p1556
(dp1557
g1345
F1.0167379023916436
ssS'brnew0.6'
p1558
(dp1559
g1345
F1.030178964679005
ssS'brnew0.7'
p1560
(dp1561
g1345
F1.0536735632097234
ssssS'800'
p1562
(dp1563
S'cprime1.0'
p1564
(dp1565
S'brnew0.8'
p1566
(dp1567
S'weight'
p1568
F1.044030888543812
ssS'brnew0.9'
p1569
(dp1570
g1568
F1.008213813009904
ssS'brnew0.0'
p1571
(dp1572
g1568
F1.0024808478954934
ssS'brnew0.1'
p1573
(dp1574
g1568
F1.0038998438936122
ssS'brnew0.2'
p1575
(dp1576
g1568
F1.0058173437469735
ssS'brnew0.3'
p1577
(dp1578
g1568
F1.0084549418093918
ssS'brnew0.4'
p1579
(dp1580
g1568
F1.0121650580936385
ssS'brnew0.5'
p1581
(dp1582
g1568
F1.0174688989570393
ssS'brnew0.6'
p1583
(dp1584
g1568
F1.0250525889935076
ssS'brnew0.7'
p1585
(dp1586
g1568
F1.0352450046073094
sssS'cprime0.7'
p1587
(dp1588
S'brnew0.8'
p1589
(dp1590
g1568
F1.0243327060854734
ssS'brnew0.9'
p1591
(dp1592
g1568
F1.0439176333202174
ssS'brnew0.0'
p1593
(dp1594
g1568
F0.9978691749531066
ssS'brnew0.1'
p1595
(dp1596
g1568
F0.998171622454873
ssS'brnew0.2'
p1597
(dp1598
g1568
F0.9986224186973814
ssS'brnew0.3'
p1599
(dp1600
g1568
F0.999316817673698
ssS'brnew0.4'
p1601
(dp1602
g1568
F1.0004162083113508
ssS'brnew0.5'
p1603
(dp1604
g1568
F1.0022373088035392
ssS'brnew0.6'
p1605
(dp1606
g1568
F1.0054623951208024
ssS'brnew0.7'
p1607
(dp1608
g1568
F1.0116380403205987
sssS'cprime0.6'
p1609
(dp1610
S'brnew0.8'
p1611
(dp1612
g1568
F1.0142874913805422
ssS'brnew0.9'
p1613
(dp1614
g1568
F1.0376945036765872
ssS'brnew0.0'
p1615
(dp1616
g1568
F0.9973592018875819
ssS'brnew0.1'
p1617
(dp1618
g1568
F0.9974851223926455
ssS'brnew0.2'
p1619
(dp1620
g1568
F0.9976798979439492
ssS'brnew0.3'
p1621
(dp1622
g1568
F0.997997784227732
ssS'brnew0.4'
p1623
(dp1624
g1568
F0.998533679454969
ssS'brnew0.5'
p1625
(dp1626
g1568
F0.9994916894401488
ssS'brnew0.6'
p1627
(dp1628
g1568
F1.0013067131357445
ssS'brnew0.7'
p1629
(dp1630
g1568
F1.0051114630975289
sssS'cprime0.5'
p1631
(dp1632
S'brnew0.8'
p1633
(dp1634
g1568
F1.0058173437469735
ssS'brnew0.9'
p1635
(dp1636
g1568
F1.0250525889935076
ssS'brnew0.0'
p1637
(dp1638
g1568
F0.9971225528126366
ssS'brnew0.1'
p1639
(dp1640
g1568
F0.9971718368269358
ssS'brnew0.2'
p1641
(dp1642
g1568
F0.9972417812674749
ssS'brnew0.3'
p1643
(dp1644
g1568
F0.9973516608321246
ssS'brnew0.4'
p1645
(dp1646
g1568
F0.997544561339343
ssS'brnew0.5'
p1647
(dp1648
g1568
F0.997920913340868
ssS'brnew0.6'
p1649
(dp1650
g1568
F0.9987154129854925
ssS'brnew0.7'
p1651
(dp1652
g1568
F1.0005842757583652
sssS'cprime0.4'
p1653
(dp1654
S'brnew0.8'
p1655
(dp1656
g1568
F1.0002464076656041
ssS'brnew0.9'
p1657
(dp1658
g1568
F1.0111123797673522
ssS'brnew0.0'
p1659
(dp1660
g1568
F0.9969818842699119
ssS'brnew0.1'
p1661
(dp1662
g1568
F0.9970051762844091
ssS'brnew0.2'
p1663
(dp1664
g1568
F0.9970410180997104
ssS'brnew0.3'
p1665
(dp1666
g1568
F0.9970877294930981
ssS'brnew0.4'
p1667
(dp1668
g1568
F0.997152590643533
ssS'brnew0.5'
p1669
(dp1670
g1568
F0.9972577741590763
ssS'brnew0.6'
p1671
(dp1672
g1568
F0.9974851223926455
ssS'brnew0.7'
p1673
(dp1674
g1568
F0.9981075304104714
sssS'cprime0.3'
p1675
(dp1676
S'brnew0.8'
p1677
(dp1678
g1568
F0.9976798979439492
ssS'brnew0.9'
p1679
(dp1680
g1568
F1.0013067131357445
ssS'brnew0.0'
p1681
(dp1682
g1568
F0.9971703809754185
ssS'brnew0.1'
p1683
(dp1684
g1568
F0.9970814353259791
ssS'brnew0.2'
p1685
(dp1686
g1568
F0.9970123606226938
ssS'brnew0.3'
p1687
(dp1688
g1568
F0.9969769717770143
ssS'brnew0.4'
p1689
(dp1690
g1568
F0.9969719923042984
ssS'brnew0.5'
p1691
(dp1692
g1568
F0.9970084688817187
ssS'brnew0.6'
p1693
(dp1694
g1568
F0.9970818202830768
ssS'brnew0.7'
p1695
(dp1696
g1568
F0.9972134391387564
sssS'cprime0.2'
p1697
(dp1698
S'brnew0.8'
p1699
(dp1700
g1568
F0.9970410180997104
ssS'brnew0.9'
p1701
(dp1702
g1568
F0.9974851223926455
ssS'brnew0.0'
p1703
(dp1704
g1568
F0.9983903278503877
ssS'brnew0.1'
p1705
(dp1706
g1568
F0.9982272573339546
ssS'brnew0.2'
p1707
(dp1708
g1568
F0.9980367570382698
ssS'brnew0.3'
p1709
(dp1710
g1568
F0.9978157172822026
ssS'brnew0.4'
p1711
(dp1712
g1568
F0.9975634476075398
ssS'brnew0.5'
p1713
(dp1714
g1568
F0.9973020679975872
ssS'brnew0.6'
p1715
(dp1716
g1568
F0.9970814353259791
ssS'brnew0.7'
p1717
(dp1718
g1568
F0.9969719539911535
sssS'cprime0.1'
p1719
(dp1720
S'brnew0.8'
p1721
(dp1722
g1568
F0.9980367570382698
ssS'brnew0.9'
p1723
(dp1724
g1568
F0.9970814353259791
ssS'brnew0.0'
p1725
(dp1726
g1568
F1.0035340866299298
ssS'brnew0.1'
p1727
(dp1728
g1568
F1.0028430653470177
ssS'brnew0.2'
p1729
(dp1730
g1568
F1.002088070409355
ssS'brnew0.3'
p1731
(dp1732
g1568
F1.001296452623944
ssS'brnew0.4'
p1733
(dp1734
g1568
F1.0005083475612675
ssS'brnew0.5'
p1735
(dp1736
g1568
F0.9997814256093818
ssS'brnew0.6'
p1737
(dp1738
g1568
F0.999174206446899
ssS'brnew0.7'
p1739
(dp1740
g1568
F0.9986621595280155
sssS'cprime0.9'
p1741
(dp1742
S'brnew0.8'
p1743
(dp1744
g1568
F1.0408980178363756
ssS'brnew0.9'
p1745
(dp1746
g1568
F1.0288803537764568
ssS'brnew0.0'
p1747
(dp1748
g1568
F1.0003484136786698
ssS'brnew0.1'
p1749
(dp1750
g1568
F1.0013067131357445
ssS'brnew0.2'
p1751
(dp1752
g1568
F1.0026343118781962
ssS'brnew0.3'
p1753
(dp1754
g1568
F1.0045203273855177
ssS'brnew0.4'
p1755
(dp1756
g1568
F1.0072748006178036
ssS'brnew0.5'
p1757
(dp1758
g1568
F1.0114274997729826
ssS'brnew0.6'
p1759
(dp1760
g1568
F1.0178638797099957
ssS'brnew0.7'
p1761
(dp1762
g1568
F1.0278238358422702
sssS'cprime0.8'
p1763
(dp1764
S'brnew0.8'
p1765
(dp1766
g1568
F1.033866774760448
ssS'brnew0.9'
p1767
(dp1768
g1568
F1.0411024433730238
ssS'brnew0.0'
p1769
(dp1770
g1568
F0.998830303865061
ssS'brnew0.1'
p1771
(dp1772
g1568
F0.9994152143425021
ssS'brnew0.2'
p1773
(dp1774
g1568
F1.0002464076656041
ssS'brnew0.3'
p1775
(dp1776
g1568
F1.0014673872324014
ssS'brnew0.4'
p1777
(dp1778
g1568
F1.0033191782873432
ssS'brnew0.5'
p1779
(dp1780
g1568
F1.0062477624665707
ssS'brnew0.6'
p1781
(dp1782
g1568
F1.0111123797673522
ssS'brnew0.7'
p1783
(dp1784
g1568
F1.0195602860264275
ssssS'450'
p1785
(dp1786
S'cprime0.5'
p1787
(dp1788
S'brnew0.8'
p1789
(dp1790
S'weight'
p1791
F1.018775507020357
ssS'brnew0.9'
p1792
(dp1793
g1791
F1.0859757778366412
ssS'brnew0.0'
p1794
(dp1795
g1791
F0.9678095578619836
ssS'brnew0.1'
p1796
(dp1797
g1791
F0.9695448489815386
ssS'brnew0.2'
p1798
(dp1799
g1791
F0.971593883106732
ssS'brnew0.3'
p1800
(dp1801
g1791
F0.9740874911280536
ssS'brnew0.4'
p1802
(dp1803
g1791
F0.9772392584892294
ssS'brnew0.5'
p1804
(dp1805
g1791
F0.9814602257952958
ssS'brnew0.6'
p1806
(dp1807
g1791
F0.9876110365159422
ssS'brnew0.7'
p1808
(dp1809
g1791
F0.9978077385323046
sssS'cprime0.7'
p1810
(dp1811
S'brnew0.8'
p1812
(dp1813
g1791
F1.0832167091396439
ssS'brnew0.9'
p1814
(dp1815
g1791
F1.2182375923760251
ssS'brnew0.0'
p1816
(dp1817
g1791
F0.980960824882862
ssS'brnew0.1'
p1818
(dp1819
g1791
F0.9836634031202985
ssS'brnew0.2'
p1820
(dp1821
g1791
F0.9869987880074629
ssS'brnew0.3'
p1822
(dp1823
g1791
F0.9912732358828161
ssS'brnew0.4'
p1824
(dp1825
g1791
F0.9969868929526765
ssS'brnew0.5'
p1826
(dp1827
g1791
F1.00508118184976
ssS'brnew0.6'
p1828
(dp1829
g1791
F1.0174927708632098
ssS'brnew0.7'
p1830
(dp1831
g1791
F1.038844845678974
sssS'cprime0.6'
p1832
(dp1833
S'brnew0.8'
p1834
(dp1835
g1791
F1.0477551563637926
ssS'brnew0.9'
p1836
(dp1837
g1791
F1.147006195801302
ssS'brnew0.0'
p1838
(dp1839
g1791
F0.9742413013017658
ssS'brnew0.1'
p1840
(dp1841
g1791
F0.9763703496435419
ssS'brnew0.2'
p1842
(dp1843
g1791
F0.9789467908104962
ssS'brnew0.3'
p1844
(dp1845
g1791
F0.9821704869323944
ssS'brnew0.4'
p1846
(dp1847
g1791
F0.986388906533196
ssS'brnew0.5'
p1848
(dp1849
g1791
F0.992248345073938
ssS'brnew0.6'
p1850
(dp1851
g1791
F1.0011010702760124
ssS'brnew0.7'
p1852
(dp1853
g1791
F1.016210706998298
sssS'cprime1.0'
p1854
(dp1855
S'brnew0.8'
p1856
(dp1857
g1791
F1.2236264486390813
ssS'brnew0.9'
p1858
(dp1859
g1791
F1.4703280110294403
ssS'brnew0.0'
p1860
(dp1861
g1791
F1.0060839546552782
ssS'brnew0.1'
p1862
(dp1863
g1791
F1.0116825552540014
ssS'brnew0.2'
p1864
(dp1865
g1791
F1.018775507020357
ssS'brnew0.3'
p1866
(dp1867
g1791
F1.0280432692763894
ssS'brnew0.4'
p1868
(dp1869
g1791
F1.0406194531512327
ssS'brnew0.5'
p1870
(dp1871
g1791
F1.058564057497363
ssS'brnew0.6'
p1872
(dp1873
g1791
F1.0859757778366412
ssS'brnew0.7'
p1874
(dp1875
g1791
F1.1322100846335121
sssS'cprime0.4'
p1876
(dp1877
S'brnew0.8'
p1878
(dp1879
g1791
F0.9961676932171237
ssS'brnew0.9'
p1880
(dp1881
g1791
F1.0370743777553457
ssS'brnew0.0'
p1882
(dp1883
g1791
F0.9612923996668764
ssS'brnew0.1'
p1884
(dp1885
g1791
F0.96272894530888
ssS'brnew0.2'
p1886
(dp1887
g1791
F0.9644012137502005
ssS'brnew0.3'
p1888
(dp1889
g1791
F0.9664005809793976
ssS'brnew0.4'
p1890
(dp1891
g1791
F0.9688620766003927
ssS'brnew0.5'
p1892
(dp1893
g1791
F0.9720234548102575
ssS'brnew0.6'
p1894
(dp1895
g1791
F0.9763703496435419
ssS'brnew0.7'
p1896
(dp1897
g1791
F0.9831131162884346
sssS'cprime0.3'
p1898
(dp1899
S'brnew0.8'
p1900
(dp1901
g1791
F0.9789467908104962
ssS'brnew0.9'
p1902
(dp1903
g1791
F1.0011010702760124
ssS'brnew0.0'
p1904
(dp1905
g1791
F0.9537408301199802
ssS'brnew0.1'
p1906
(dp1907
g1791
F0.9551878177353695
ssS'brnew0.2'
p1908
(dp1909
g1791
F0.9567312411097052
ssS'brnew0.3'
p1910
(dp1911
g1791
F0.9584430740438636
ssS'brnew0.4'
p1912
(dp1913
g1791
F0.960436559453342
ssS'brnew0.5'
p1914
(dp1915
g1791
F0.9628998980556784
ssS'brnew0.6'
p1916
(dp1917
g1791
F0.9661585942009262
ssS'brnew0.7'
p1918
(dp1919
g1791
F0.9708697464643088
sssS'cprime0.2'
p1920
(dp1921
S'brnew0.8'
p1922
(dp1923
g1791
F0.9644012137502005
ssS'brnew0.9'
p1924
(dp1925
g1791
F0.9763703496435419
ssS'brnew0.0'
p1926
(dp1927
g1791
F0.936508873938173
ssS'brnew0.1'
p1928
(dp1929
g1791
F0.9396177038584898
ssS'brnew0.2'
p1930
(dp1931
g1791
F0.9427414213847455
ssS'brnew0.3'
p1932
(dp1933
g1791
F0.9458581924642496
ssS'brnew0.4'
p1934
(dp1935
g1791
F0.9489364223306009
ssS'brnew0.5'
p1936
(dp1937
g1791
F0.952005225166099
ssS'brnew0.6'
p1938
(dp1939
g1791
F0.9551878177353695
ssS'brnew0.7'
p1940
(dp1941
g1791
F0.958908458764875
sssS'cprime0.1'
p1942
(dp1943
S'brnew0.8'
p1944
(dp1945
g1791
F0.9427414213847455
ssS'brnew0.9'
p1946
(dp1947
g1791
F0.9551878177353695
ssS'brnew0.0'
p1948
(dp1949
g1791
F0.8886282599947686
ssS'brnew0.1'
p1950
(dp1951
g1791
F0.8909480295391918
ssS'brnew0.2'
p1952
(dp1953
g1791
F0.8940479957814094
ssS'brnew0.3'
p1954
(dp1955
g1791
F0.8981688518147534
ssS'brnew0.4'
p1956
(dp1957
g1791
F0.9035994740798111
ssS'brnew0.5'
p1958
(dp1959
g1791
F0.9106458297290819
ssS'brnew0.6'
p1960
(dp1961
g1791
F0.9195804671207962
ssS'brnew0.7'
p1962
(dp1963
g1791
F0.9304675097705319
sssS'cprime0.9'
p1964
(dp1965
S'brnew0.8'
p1966
(dp1967
g1791
F1.171870369858816
ssS'brnew0.9'
p1968
(dp1969
g1791
F1.3820675379084713
ssS'brnew0.0'
p1970
(dp1971
g1791
F0.9966594828221457
ssS'brnew0.1'
p1972
(dp1973
g1791
F1.0011010702760124
ssS'brnew0.2'
p1974
(dp1975
g1791
F1.0067101802822949
ssS'brnew0.3'
p1976
(dp1977
g1791
F1.0140228554504815
ssS'brnew0.4'
p1978
(dp1979
g1791
F1.0239470482890327
ssS'brnew0.5'
p1980
(dp1981
g1791
F1.0381359180379395
ssS'brnew0.6'
p1982
(dp1983
g1791
F1.0599234241865596
ssS'brnew0.7'
p1984
(dp1985
g1791
F1.0970415558532758
sssS'cprime0.8'
p1986
(dp1987
S'brnew0.8'
p1988
(dp1989
g1791
F1.1248031060335333
ssS'brnew0.9'
p1990
(dp1991
g1791
F1.2973496953379489
ssS'brnew0.0'
p1992
(dp1993
g1791
F0.9883448359768806
ssS'brnew0.1'
p1994
(dp1995
g1791
F0.9918164350369738
ssS'brnew0.2'
p1996
(dp1997
g1791
F0.9961676932171237
ssS'brnew0.3'
p1998
(dp1999
g1791
F1.0018061870643415
ssS'brnew0.4'
p2000
(dp2001
g1791
F1.0094337749160975
ssS'brnew0.5'
p2002
(dp2003
g1791
F1.020322153067327
ssS'brnew0.6'
p2004
(dp2005
g1791
F1.0370743777553457
ssS'brnew0.7'
p2006
(dp2007
g1791
F1.0658273874264268
ssssS'2000'
p2008
(dp2009
S'cprime1.0'
p2010
(dp2011
S'brnew0.8'
p2012
(dp2013
S'weight'
p2014
F0.40450019967086415
ssS'brnew0.9'
p2015
(dp2016
g2014
F0.23051314136805087
ssS'brnew0.0'
p2017
(dp2018
g2014
F1.0
ssS'brnew0.1'
p2019
(dp2020
g2014
F0.9614734386494959
ssS'brnew0.2'
p2021
(dp2022
g2014
F0.9169859419372237
ssS'brnew0.3'
p2023
(dp2024
g2014
F0.8651636814811794
ssS'brnew0.4'
p2025
(dp2026
g2014
F0.8042204824226538
ssS'brnew0.5'
p2027
(dp2028
g2014
F0.7317821653002688
ssS'brnew0.6'
p2029
(dp2030
g2014
F0.6446072210171478
ssS'brnew0.7'
p2031
(dp2032
g2014
F0.538009770130682
sssS'cprime0.7'
p2033
(dp2034
S'brnew0.8'
p2035
(dp2036
g2014
F0.6523754615237606
ssS'brnew0.9'
p2037
(dp2038
g2014
F0.4106196862487769
ssS'brnew0.0'
p2039
(dp2040
g2014
F1.2169082862113512
ssS'brnew0.1'
p2041
(dp2042
g2014
F1.190227763209962
ssS'brnew0.2'
p2043
(dp2044
g2014
F1.1581487125844505
ssS'brnew0.3'
p2045
(dp2046
g2014
F1.118904671957407
ssS'brnew0.4'
p2047
(dp2048
g2014
F1.0699071045291035
ssS'brnew0.5'
p2049
(dp2050
g2014
F1.007231618243883
ssS'brnew0.6'
p2051
(dp2052
g2014
F0.9247095219954949
ssS'brnew0.7'
p2053
(dp2054
g2014
F0.8122459910320345
sssS'cprime0.6'
p2055
(dp2056
S'brnew0.8'
p2057
(dp2058
g2014
F0.773612805208288
ssS'brnew0.9'
p2059
(dp2060
g2014
F0.5110162662655529
ssS'brnew0.0'
p2061
(dp2062
g2014
F1.2844238428407675
ssS'brnew0.1'
p2063
(dp2064
g2014
F1.2630645201913
ssS'brnew0.2'
p2065
(dp2066
g2014
F1.2371020062633873
ssS'brnew0.3'
p2067
(dp2068
g2014
F1.2048932914606336
ssS'brnew0.4'
p2069
(dp2070
g2014
F1.1639360807988706
ssS'brnew0.5'
p2071
(dp2072
g2014
F1.110240071213559
ssS'brnew0.6'
p2073
(dp2074
g2014
F1.0371036835673715
ssS'brnew0.7'
p2075
(dp2076
g2014
F0.9325545654114974
sssS'cprime0.5'
p2077
(dp2078
S'brnew0.8'
p2079
(dp2080
g2014
F0.9169859419372237
ssS'brnew0.9'
p2081
(dp2082
g2014
F0.6446072210171478
ssS'brnew0.0'
p2083
(dp2084
g2014
F1.3459748114212466
ssS'brnew0.1'
p2085
(dp2086
g2014
F1.3300303001751201
ssS'brnew0.2'
p2087
(dp2088
g2014
F1.310487197831037
ssS'brnew0.3'
p2089
(dp2090
g2014
F1.285970665394711
ssS'brnew0.4'
p2091
(dp2092
g2014
F1.254319605906058
ssS'brnew0.5'
p2093
(dp2094
g2014
F1.2119389210971534
ssS'brnew0.6'
p2095
(dp2096
g2014
F1.1524064882914253
ssS'brnew0.7'
p2097
(dp2098
g2014
F1.063204010668542
sssS'cprime0.4'
p2099
(dp2100
S'brnew0.8'
p2101
(dp2102
g2014
F1.0766827728678325
ssS'brnew0.9'
p2103
(dp2104
g2014
F0.8204288175809683
ssS'brnew0.0'
p2105
(dp2106
g2014
F1.3996385064241357
ssS'brnew0.1'
p2107
(dp2108
g2014
F1.388783742113683
ssS'brnew0.2'
p2109
(dp2110
g2014
F1.3753952596064418
ssS'brnew0.3'
p2111
(dp2112
g2014
F1.3584678570883997
ssS'brnew0.4'
p2113
(dp2114
g2014
F1.3363751913714739
ssS'brnew0.5'
p2115
(dp2116
g2014
F1.3063208646637985
ssS'brnew0.6'
p2117
(dp2118
g2014
F1.2630645201913
ssS'brnew0.7'
p2119
(dp2120
g2014
F1.1955982757509838
sssS'cprime0.3'
p2121
(dp2122
S'brnew0.8'
p2123
(dp2124
g2014
F1.2371020062633873
ssS'brnew0.9'
p2125
(dp2126
g2014
F1.0371036835673715
ssS'brnew0.0'
p2127
(dp2128
g2014
F1.4437178240438726
ssS'brnew0.1'
p2129
(dp2130
g2014
F1.4372859085078684
ssS'brnew0.2'
p2131
(dp2132
g2014
F1.4293101335820615
ssS'brnew0.3'
p2133
(dp2134
g2014
F1.4191599219817381
ssS'brnew0.4'
p2135
(dp2136
g2014
F1.4058036697254015
ssS'brnew0.5'
p2137
(dp2138
g2014
F1.3874352278134308
ssS'brnew0.6'
p2139
(dp2140
g2014
F1.3605663729636652
ssS'brnew0.7'
p2141
(dp2142
g2014
F1.3174738863584852
sssS'cprime0.2'
p2143
(dp2144
S'brnew0.8'
p2145
(dp2146
g2014
F1.3753952596064418
ssS'brnew0.9'
p2147
(dp2148
g2014
F1.2630645201913
ssS'brnew0.0'
p2149
(dp2150
g2014
F1.4762018374433232
ssS'brnew0.1'
p2151
(dp2152
g2014
F1.4733761138638795
ssS'brnew0.2'
p2153
(dp2154
g2014
F1.4697845816319053
ssS'brnew0.3'
p2155
(dp2156
g2014
F1.4651238035649934
ssS'brnew0.4'
p2157
(dp2158
g2014
F1.4588895085154336
ssS'brnew0.5'
p2159
(dp2160
g2014
F1.4501945943838186
ssS'brnew0.6'
p2161
(dp2162
g2014
F1.4372859085078684
ssS'brnew0.7'
p2163
(dp2164
g2014
F1.4161747254058517
sssS'cprime0.1'
p2165
(dp2166
S'brnew0.8'
p2167
(dp2168
g2014
F1.4697845816319053
ssS'brnew0.9'
p2169
(dp2170
g2014
F1.4372859085078684
ssS'brnew0.0'
p2171
(dp2172
g2014
F1.4897764741780226
ssS'brnew0.1'
p2173
(dp2174
g2014
F1.4896056981633246
ssS'brnew0.2'
p2175
(dp2176
g2014
F1.4893595550318222
ssS'brnew0.3'
p2177
(dp2178
g2014
F1.488979970199259
ssS'brnew0.4'
p2179
(dp2180
g2014
F1.4883343980684085
ssS'brnew0.5'
p2181
(dp2182
g2014
F1.4871641957211286
ssS'brnew0.6'
p2183
(dp2184
g2014
F1.4849087238723895
ssS'brnew0.7'
p2185
(dp2186
g2014
F1.4802961275572066
sssS'cprime0.9'
p2187
(dp2188
S'brnew0.8'
p2189
(dp2190
g2014
F0.4711480080080265
ssS'brnew0.9'
p2191
(dp2192
g2014
F0.2760258277642424
ssS'brnew0.0'
p2193
(dp2194
g2014
F1.0726081819323598
ssS'brnew0.1'
p2195
(dp2196
g2014
F1.0371036835673715
ssS'brnew0.2'
p2197
(dp2198
g2014
F0.995528122124201
ssS'brnew0.3'
p2199
(dp2200
g2014
F0.9462951368021366
ssS'brnew0.4'
p2201
(dp2202
g2014
F0.8872651256114191
ssS'brnew0.5'
p2203
(dp2204
g2014
F0.8155001078407331
ssS'brnew0.6'
p2205
(dp2206
g2014
F0.7268669994091319
ssS'brnew0.7'
p2207
(dp2208
g2014
F0.6153125331402926
sssS'cprime0.8'
p2209
(dp2210
S'brnew0.8'
p2211
(dp2212
g2014
F0.5526127699716459
ssS'brnew0.9'
p2213
(dp2214
g2014
F0.3345023257468343
ssS'brnew0.0'
p2215
(dp2216
g2014
F1.1455763952748543
ssS'brnew0.1'
p2217
(dp2218
g2014
F1.1140778487191985
ssS'brnew0.2'
p2219
(dp2220
g2014
F1.0766827728678325
ssS'brnew0.3'
p2221
(dp2222
g2014
F1.0316560553884342
ssS'brnew0.4'
p2223
(dp2224
g2014
F0.9765560347864587
ssS'brnew0.5'
p2225
(dp2226
g2014
F0.9078749732076231
ssS'brnew0.6'
p2227
(dp2228
g2014
F0.8204288175809683
ssS'brnew0.7'
p2229
(dp2230
g2014
F0.706306932825697
ssssS'3000'
p2231
(dp2232
S'cprime1.0'
p2233
(dp2234
S'brnew0.8'
p2235
(dp2236
S'weight'
p2237
F0.31105861740937096
ssS'brnew0.9'
p2238
(dp2239
g2237
F0.16185684798809236
ssS'brnew0.0'
p2240
(dp2241
g2237
F0.9076112159797602
ssS'brnew0.1'
p2242
(dp2243
g2237
F0.8715412984581339
ssS'brnew0.2'
p2244
(dp2245
g2237
F0.8287268158518205
ssS'brnew0.3'
p2246
(dp2247
g2237
F0.77749594995276
ssS'brnew0.4'
p2248
(dp2249
g2237
F0.7157575679614858
ssS'brnew0.5'
p2250
(dp2251
g2237
F0.6409797247193613
ssS'brnew0.6'
p2252
(dp2253
g2237
F0.5502982160417944
ssS'brnew0.7'
p2254
(dp2255
g2237
F0.44091512191143717
sssS'cprime0.7'
p2256
(dp2257
S'brnew0.8'
p2258
(dp2259
g2237
F0.5583670847922325
ssS'brnew0.9'
p2260
(dp2261
g2237
F0.31675997743876017
ssS'brnew0.0'
p2262
(dp2263
g2237
F1.089046836157498
ssS'brnew0.1'
p2264
(dp2265
g2237
F1.0689498885502042
ssS'brnew0.2'
p2266
(dp2267
g2237
F1.0439101305227334
ssS'brnew0.3'
p2268
(dp2269
g2237
F1.0120194723567961
ssS'brnew0.4'
p2270
(dp2271
g2237
F0.9703501698991579
ssS'brnew0.5'
p2272
(dp2273
g2237
F0.914267851039063
ssS'brnew0.6'
p2274
(dp2275
g2237
F0.8362426697845988
ssS'brnew0.7'
p2276
(dp2277
g2237
F0.7239631468620581
sssS'cprime0.6'
p2278
(dp2279
S'brnew0.8'
p2280
(dp2281
g2237
F0.6842979321839384
ssS'brnew0.9'
p2282
(dp2283
g2237
F0.4138502812716674
ssS'brnew0.0'
p2284
(dp2285
g2237
F1.1368338760197896
ssS'brnew0.1'
p2286
(dp2287
g2237
F1.1222013149818166
ssS'brnew0.2'
p2288
(dp2289
g2237
F1.1038064218897339
ssS'brnew0.3'
p2290
(dp2291
g2237
F1.080079753747255
ssS'brnew0.4'
p2292
(dp2293
g2237
F1.0484975877220828
ssS'brnew0.5'
p2294
(dp2295
g2237
F1.0047985143008626
ssS'brnew0.6'
p2296
(dp2297
g2237
F0.9413692941738182
ssS'brnew0.7'
p2298
(dp2299
g2237
F0.8438427264429749
sssS'cprime0.5'
p2300
(dp2301
S'brnew0.8'
p2302
(dp2303
g2237
F0.8287268158518205
ssS'brnew0.9'
p2304
(dp2305
g2237
F0.5502982160417944
ssS'brnew0.0'
p2306
(dp2307
g2237
F1.1763784247611146
ssS'brnew0.1'
p2308
(dp2309
g2237
F1.1665181104797724
ssS'brnew0.2'
p2310
(dp2311
g2237
F1.1540619396025367
ssS'brnew0.3'
p2312
(dp2313
g2237
F1.137875227472302
ssS'brnew0.4'
p2314
(dp2315
g2237
F1.1160796298712852
ssS'brnew0.5'
p2316
(dp2317
g2237
F1.0853544806002255
ssS'brnew0.6'
p2318
(dp2319
g2237
F1.0393292767547249
ssS'brnew0.7'
p2320
(dp2321
g2237
F0.9644971438655091
sssS'cprime0.4'
p2322
(dp2323
S'brnew0.8'
p2324
(dp2325
g2237
F0.9762306626695835
ssS'brnew0.9'
p2326
(dp2327
g2237
F0.7323086235709433
ssS'brnew0.0'
p2328
(dp2329
g2237
F1.2074726625505185
ssS'brnew0.1'
p2330
(dp2331
g2237
F1.201451132203775
ssS'brnew0.2'
p2332
(dp2333
g2237
F1.1938355358457378
ssS'brnew0.3'
p2334
(dp2335
g2237
F1.1839101892978283
ssS'brnew0.4'
p2336
(dp2337
g2237
F1.1704748899034871
ssS'brnew0.5'
p2338
(dp2339
g2237
F1.1513544198429724
ssS'brnew0.6'
p2340
(dp2341
g2237
F1.1222013149818166
ssS'brnew0.7'
p2342
(dp2343
g2237
F1.0730492023115181
sssS'cprime0.3'
p2344
(dp2345
S'brnew0.8'
p2346
(dp2347
g2237
F1.1038064218897339
ssS'brnew0.9'
p2348
(dp2349
g2237
F0.9413692941738182
ssS'brnew0.0'
p2350
(dp2351
g2237
F1.2306581581158091
ssS'brnew0.1'
p2352
(dp2353
g2237
F1.2273676093858041
ssS'brnew0.2'
p2354
(dp2355
g2237
F1.2232612897637918
ssS'brnew0.3'
p2356
(dp2357
g2237
F1.217962089347995
ssS'brnew0.4'
p2358
(dp2359
g2237
F1.2108311942244654
ssS'brnew0.5'
p2360
(dp2361
g2237
F1.2006942707555879
ssS'brnew0.6'
p2362
(dp2363
g2237
F1.1851582683567
ssS'brnew0.7'
p2364
(dp2365
g2237
F1.1585614066986465
sssS'cprime0.2'
p2366
(dp2367
S'brnew0.8'
p2368
(dp2369
g2237
F1.1938355358457378
ssS'brnew0.9'
p2370
(dp2371
g2237
F1.1222013149818166
ssS'brnew0.0'
p2372
(dp2373
g2237
F1.2482865512982293
ssS'brnew0.1'
p2374
(dp2375
g2237
F1.246503765487581
ssS'brnew0.2'
p2376
(dp2377
g2237
F1.2443886456743638
ssS'brnew0.3'
p2378
(dp2379
g2237
F1.2417921469041024
ssS'brnew0.4'
p2380
(dp2381
g2237
F1.238470414833484
ssS'brnew0.5'
p2382
(dp2383
g2237
F1.233971495738206
ssS'brnew0.6'
p2384
(dp2385
g2237
F1.2273676093858041
ssS'brnew0.7'
p2386
(dp2387
g2237
F1.2163850719188585
sssS'cprime0.1'
p2388
(dp2389
S'brnew0.8'
p2390
(dp2391
g2237
F1.2443886456743638
ssS'brnew0.9'
p2392
(dp2393
g2237
F1.2273676093858041
ssS'brnew0.0'
p2394
(dp2395
g2237
F1.272837405441103
ssS'brnew0.1'
p2396
(dp2397
g2237
F1.2706017011392394
ssS'brnew0.2'
p2398
(dp2399
g2237
F1.2681475552111783
ssS'brnew0.3'
p2400
(dp2401
g2237
F1.2654663327840538
ssS'brnew0.4'
p2402
(dp2403
g2237
F1.262536172732798
ssS'brnew0.5'
p2404
(dp2405
g2237
F1.2593144649030257
ssS'brnew0.6'
p2406
(dp2407
g2237
F1.2556754232534193
ssS'brnew0.7'
p2408
(dp2409
g2237
F1.2512054311016794
sssS'cprime0.9'
p2410
(dp2411
S'brnew0.8'
p2412
(dp2413
g2237
F0.37455429572882204
ssS'brnew0.9'
p2414
(dp2415
g2237
F0.19835098551818942
ssS'brnew0.0'
p2416
(dp2417
g2237
F0.9726992160500065
ssS'brnew0.1'
p2418
(dp2419
g2237
F0.9413692941738182
ssS'brnew0.2'
p2420
(dp2421
g2237
F0.9034754944989724
ssS'brnew0.3'
p2422
(dp2423
g2237
F0.8570664549898793
ssS'brnew0.4'
p2424
(dp2425
g2237
F0.799507785881857
ssS'brnew0.5'
p2426
(dp2427
g2237
F0.7272844424268579
ssS'brnew0.6'
p2428
(dp2429
g2237
F0.635872925256642
ssS'brnew0.7'
p2430
(dp2431
g2237
F0.5199497490514867
sssS'cprime0.8'
p2432
(dp2433
S'brnew0.8'
p2434
(dp2435
g2237
F0.455689379633776
ssS'brnew0.9'
p2436
(dp2437
g2237
F0.24792613917501305
ssS'brnew0.0'
p2438
(dp2439
g2237
F1.033841594110897
ssS'brnew0.1'
p2440
(dp2441
g2237
F1.008004278995702
ssS'brnew0.2'
p2442
(dp2443
g2237
F0.9762306626695835
ssS'brnew0.3'
p2444
(dp2445
g2237
F0.9364757422793314
ssS'brnew0.4'
p2446
(dp2447
g2237
F0.8857800025048609
ssS'brnew0.5'
p2448
(dp2449
g2237
F0.819819156771163
ssS'brnew0.6'
p2450
(dp2451
g2237
F0.7323086235709433
ssS'brnew0.7'
p2452
(dp2453
g2237
F0.6144888143516153
ssssS'650'
p2454
(dp2455
S'cprime0.5'
p2456
(dp2457
S'brnew0.8'
p2458
(dp2459
S'weight'
p2460
F1.01155338217485
ssS'brnew0.9'
p2461
(dp2462
g2460
F1.055661056006268
ssS'brnew0.0'
p2463
(dp2464
g2460
F0.9889277437577302
ssS'brnew0.1'
p2465
(dp2466
g2460
F0.9892843884767586
ssS'brnew0.2'
p2467
(dp2468
g2460
F0.9897639989327346
ssS'brnew0.3'
p2469
(dp2470
g2460
F0.9904178750508458
ssS'brnew0.4'
p2471
(dp2472
g2460
F0.9913621305400886
ssS'brnew0.5'
p2473
(dp2474
g2460
F0.9928149496573987
ssS'brnew0.6'
p2475
(dp2476
g2460
F0.9952606017256921
ssS'brnew0.7'
p2477
(dp2478
g2460
F0.9999343832124346
sssS'cprime0.7'
p2479
(dp2480
S'brnew0.8'
p2481
(dp2482
g2460
F1.0537707991001517
ssS'brnew0.9'
p2483
(dp2484
g2460
F1.1425390741279895
ssS'brnew0.0'
p2485
(dp2486
g2460
F0.9926334833263416
ssS'brnew0.1'
p2487
(dp2488
g2460
F0.9936482805794783
ssS'brnew0.2'
p2489
(dp2490
g2460
F0.9950010854519007
ssS'brnew0.3'
p2491
(dp2492
g2460
F0.9968721104604602
ssS'brnew0.4'
p2493
(dp2494
g2460
F0.9995838091392267
ssS'brnew0.5'
p2495
(dp2496
g2460
F1.00377166972162
ssS'brnew0.6'
p2497
(dp2498
g2460
F1.0107938779539478
ssS'brnew0.7'
p2499
(dp2500
g2460
F1.0240236138207894
sssS'cprime0.6'
p2501
(dp2502
S'brnew0.8'
p2503
(dp2504
g2460
F1.029829551420381
ssS'brnew0.9'
p2505
(dp2506
g2460
F1.0971533679396066
ssS'brnew0.0'
p2507
(dp2508
g2460
F0.9904626947518055
ssS'brnew0.1'
p2509
(dp2510
g2460
F0.9910908960008632
ssS'brnew0.2'
p2511
(dp2512
g2460
F0.9919263323525945
ssS'brnew0.3'
p2513
(dp2514
g2460
F0.9930791268821629
ssS'brnew0.4'
p2515
(dp2516
g2460
F0.9947420999448988
ssS'brnew0.5'
p2517
(dp2518
g2460
F0.9973201942789411
ssS'brnew0.6'
p2519
(dp2520
g2460
F1.001670746020921
ssS'brnew0.7'
p2521
(dp2522
g2460
F1.010040951402383
sssS'cprime1.0'
p2523
(dp2524
S'brnew0.8'
p2525
(dp2526
g2460
F1.1457829536821174
ssS'brnew0.9'
p2527
(dp2528
g2460
F1.2608458742148978
ssS'brnew0.0'
p2529
(dp2530
g2460
F1.0043160360747903
ssS'brnew0.1'
p2531
(dp2532
g2460
F1.007427867658268
ssS'brnew0.2'
p2533
(dp2534
g2460
F1.01155338217485
ssS'brnew0.3'
p2535
(dp2536
g2460
F1.0171867963800842
ssS'brnew0.4'
p2537
(dp2538
g2460
F1.0251675553863748
ssS'brnew0.5'
p2539
(dp2540
g2460
F1.0370191750409912
ssS'brnew0.6'
p2541
(dp2542
g2460
F1.055661056006268
ssS'brnew0.7'
p2543
(dp2544
g2460
F1.0872318106623167
sssS'cprime0.4'
p2545
(dp2546
S'brnew0.8'
p2547
(dp2548
g2460
F0.9991819661411204
ssS'brnew0.9'
p2549
(dp2550
g2460
F1.0228860449178145
ssS'brnew0.0'
p2551
(dp2552
g2460
F0.9879272235283493
ssS'brnew0.1'
p2553
(dp2554
g2460
F0.9881023902497557
ssS'brnew0.2'
p2555
(dp2556
g2460
F0.9883397504952666
ssS'brnew0.3'
p2557
(dp2558
g2460
F0.9886668190990398
ssS'brnew0.4'
p2559
(dp2560
g2460
F0.9891392659777222
ssS'brnew0.5'
p2561
(dp2562
g2460
F0.9898697827332522
ssS'brnew0.6'
p2563
(dp2564
g2460
F0.9910908960008632
ssS'brnew0.7'
p2565
(dp2566
g2460
F0.9934339250474412
sssS'cprime0.3'
p2567
(dp2568
S'brnew0.8'
p2569
(dp2570
g2460
F0.9919263323525945
ssS'brnew0.9'
p2571
(dp2572
g2460
F1.001670746020921
ssS'brnew0.0'
p2573
(dp2574
g2460
F0.9872794988083813
ssS'brnew0.1'
p2575
(dp2576
g2460
F0.9873750882832967
ssS'brnew0.2'
p2577
(dp2578
g2460
F0.9874911721962396
ssS'brnew0.3'
p2579
(dp2580
g2460
F0.9876352747367269
ssS'brnew0.4'
p2581
(dp2582
g2460
F0.9878318810951413
ssS'brnew0.5'
p2583
(dp2584
g2460
F0.9881294753678992
ssS'brnew0.6'
p2585
(dp2586
g2460
F0.9886226178385203
ssS'brnew0.7'
p2587
(dp2588
g2460
F0.9895870133750089
sssS'cprime0.2'
p2589
(dp2590
S'brnew0.8'
p2591
(dp2592
g2460
F0.9883397504952666
ssS'brnew0.9'
p2593
(dp2594
g2460
F0.9910908960008632
ssS'brnew0.0'
p2595
(dp2596
g2460
F0.9864497944877091
ssS'brnew0.1'
p2597
(dp2598
g2460
F0.9865686551523264
ssS'brnew0.2'
p2599
(dp2600
g2460
F0.9867016308870314
ssS'brnew0.3'
p2601
(dp2602
g2460
F0.9868439466942835
ssS'brnew0.4'
p2603
(dp2604
g2460
F0.9870005262292124
ssS'brnew0.5'
p2605
(dp2606
g2460
F0.987172752677314
ssS'brnew0.6'
p2607
(dp2608
g2460
F0.9873750882832967
ssS'brnew0.7'
p2609
(dp2610
g2460
F0.9876780489139317
sssS'cprime0.1'
p2611
(dp2612
S'brnew0.8'
p2613
(dp2614
g2460
F0.9867016308870314
ssS'brnew0.9'
p2615
(dp2616
g2460
F0.9873750882832967
ssS'brnew0.0'
p2617
(dp2618
g2460
F0.9879881169732317
ssS'brnew0.1'
p2619
(dp2620
g2460
F0.9874284852976465
ssS'brnew0.2'
p2621
(dp2622
g2460
F0.9869501381867918
ssS'brnew0.3'
p2623
(dp2624
g2460
F0.9865568469095277
ssS'brnew0.4'
p2625
(dp2626
g2460
F0.9862672323077863
ssS'brnew0.5'
p2627
(dp2628
g2460
F0.9860962678670283
ssS'brnew0.6'
p2629
(dp2630
g2460
F0.9860766048208884
ssS'brnew0.7'
p2631
(dp2632
g2460
F0.9862652782091005
sssS'cprime0.9'
p2633
(dp2634
S'brnew0.8'
p2635
(dp2636
g2460
F1.1134869096602311
ssS'brnew0.9'
p2637
(dp2638
g2460
F1.2273061995079793
ssS'brnew0.0'
p2639
(dp2640
g2460
F0.9994286552861629
ssS'brnew0.1'
p2641
(dp2642
g2460
F1.001670746020921
ssS'brnew0.2'
p2643
(dp2644
g2460
F1.0046550199506248
ssS'brnew0.3'
p2645
(dp2646
g2460
F1.0087696734182072
ssS'brnew0.4'
p2647
(dp2648
g2460
F1.0146650140717757
ssS'brnew0.5'
p2649
(dp2650
g2460
F1.0235663434755917
ssS'brnew0.6'
p2651
(dp2652
g2460
F1.0379313782029242
ssS'brnew0.7'
p2653
(dp2654
g2460
F1.0632517014397844
sssS'cprime0.8'
p2655
(dp2656
S'brnew0.8'
p2657
(dp2658
g2460
F1.0822199027650419
ssS'brnew0.9'
p2659
(dp2660
g2460
F1.1871127875459089
ssS'brnew0.0'
p2661
(dp2662
g2460
F0.9955738932842371
ssS'brnew0.1'
p2663
(dp2664
g2460
F0.9971149450395584
ssS'brnew0.2'
p2665
(dp2666
g2460
F0.9991819661411204
ssS'brnew0.3'
p2667
(dp2668
g2460
F1.002036509538175
ssS'brnew0.4'
p2669
(dp2670
g2460
F1.0061615183386126
ssS'brnew0.5'
p2671
(dp2672
g2460
F1.0124752682830782
ssS'brnew0.6'
p2673
(dp2674
g2460
F1.0228860449178145
ssS'brnew0.7'
p2675
(dp2676
g2460
F1.041915596136029
ssssS'400'
p2677
(dp2678
S'cprime1.0'
p2679
(dp2680
S'brnew0.8'
p2681
(dp2682
S'weight'
p2683
F1.2376037910863023
ssS'brnew0.9'
p2684
(dp2685
g2683
F1.4955449563470453
ssS'brnew0.0'
p2686
(dp2687
g2683
F1.0052635652333277
ssS'brnew0.1'
p2688
(dp2689
g2683
F1.0118602414306719
ssS'brnew0.2'
p2690
(dp2691
g2683
F1.0201008697784493
ssS'brnew0.3'
p2692
(dp2693
g2683
F1.0306682854098932
ssS'brnew0.4'
p2694
(dp2695
g2683
F1.0447945153073397
ssS'brnew0.5'
p2696
(dp2697
g2683
F1.0645603079640498
ssS'brnew0.6'
p2698
(dp2699
g2683
F1.0941074668024
ssS'brnew0.7'
p2700
(dp2701
g2683
F1.1428606514602357
sssS'cprime0.7'
p2702
(dp2703
S'brnew0.8'
p2704
(dp2705
g2683
F1.0911521831099398
ssS'brnew0.9'
p2706
(dp2707
g2683
F1.2320355942633798
ssS'brnew0.0'
p2708
(dp2709
g2683
F0.9747941272490205
ssS'brnew0.1'
p2710
(dp2711
g2683
F0.9781161723883159
ssS'brnew0.2'
p2712
(dp2713
g2683
F0.98223037706942
ssS'brnew0.3'
p2714
(dp2715
g2683
F0.9874702379944112
ssS'brnew0.4'
p2716
(dp2717
g2683
F0.9944116077438979
ssS'brnew0.5'
p2718
(dp2719
g2683
F1.0040779518333294
ssS'brnew0.6'
p2720
(dp2721
g2683
F1.0186006777724934
ssS'brnew0.7'
p2722
(dp2723
g2683
F1.0428245789596406
sssS'cprime0.6'
p2724
(dp2725
S'brnew0.8'
p2726
(dp2727
g2683
F1.0527096336893649
ssS'brnew0.9'
p2728
(dp2729
g2683
F1.1582964607604944
ssS'brnew0.0'
p2730
(dp2731
g2683
F0.9665565969528638
ssS'brnew0.1'
p2732
(dp2733
g2683
F0.9691498381186254
ssS'brnew0.2'
p2734
(dp2735
g2683
F0.9723082547221917
ssS'brnew0.3'
p2736
(dp2737
g2683
F0.9762791362955237
ssS'brnew0.4'
p2738
(dp2739
g2683
F0.9814824212577793
ssS'brnew0.5'
p2740
(dp2741
g2683
F0.98867347903651
ssS'brnew0.6'
p2742
(dp2743
g2683
F0.9993472075064667
ssS'brnew0.7'
p2744
(dp2745
g2683
F1.0171187252805711
sssS'cprime0.5'
p2746
(dp2747
S'brnew0.8'
p2748
(dp2749
g2683
F1.0201008697784493
ssS'brnew0.9'
p2750
(dp2751
g2683
F1.0941074668024
ssS'brnew0.0'
p2752
(dp2753
g2683
F0.9588325547482834
ssS'brnew0.1'
p2754
(dp2755
g2683
F0.9608978811663783
ssS'brnew0.2'
p2756
(dp2757
g2683
F0.9633502682847725
ssS'brnew0.3'
p2758
(dp2759
g2683
F0.9663573247336725
ssS'brnew0.4'
p2760
(dp2761
g2683
F0.9702161870883468
ssS'brnew0.5'
p2762
(dp2763
g2683
F0.9754035052110324
ssS'brnew0.6'
p2764
(dp2765
g2683
F0.9829836625873452
ssS'brnew0.7'
p2766
(dp2767
g2683
F0.9954174290117529
sssS'cprime0.4'
p2768
(dp2769
S'brnew0.8'
p2770
(dp2771
g2683
F0.9934104873171521
ssS'brnew0.9'
p2772
(dp2773
g2683
F1.0408474812852602
ssS'brnew0.0'
p2774
(dp2775
g2683
F0.9511137030817377
ssS'brnew0.1'
p2776
(dp2777
g2683
F0.9528113292658542
ssS'brnew0.2'
p2778
(dp2779
g2683
F0.9547909795024916
ssS'brnew0.3'
p2780
(dp2781
g2683
F0.9571615842727682
ssS'brnew0.4'
p2782
(dp2783
g2683
F0.9600871475927973
ssS'brnew0.5'
p2784
(dp2785
g2683
F0.963863460701123
ssS'brnew0.6'
p2786
(dp2787
g2683
F0.9691498381186254
ssS'brnew0.7'
p2788
(dp2789
g2683
F0.9774461314578864
sssS'cprime0.3'
p2790
(dp2791
S'brnew0.8'
p2792
(dp2793
g2683
F0.9723082547221917
ssS'brnew0.9'
p2794
(dp2795
g2683
F0.9993472075064667
ssS'brnew0.0'
p2796
(dp2797
g2683
F0.9430510610570267
ssS'brnew0.1'
p2798
(dp2799
g2683
F0.944365190561277
ssS'brnew0.2'
p2800
(dp2801
g2683
F0.9459204844316179
ssS'brnew0.3'
p2802
(dp2803
g2683
F0.9478001131129339
ssS'brnew0.4'
p2804
(dp2805
g2683
F0.9501100621082158
ssS'brnew0.5'
p2806
(dp2807
g2683
F0.9530132953310967
ssS'brnew0.6'
p2808
(dp2809
g2683
F0.9568717989968587
ssS'brnew0.7'
p2810
(dp2811
g2683
F0.9624780188867761
sssS'cprime0.2'
p2812
(dp2813
S'brnew0.8'
p2814
(dp2815
g2683
F0.9547909795024916
ssS'brnew0.9'
p2816
(dp2817
g2683
F0.9691498381186254
ssS'brnew0.0'
p2818
(dp2819
g2683
F0.9364957021327447
ssS'brnew0.1'
p2820
(dp2821
g2683
F0.9369347866477853
ssS'brnew0.2'
p2822
(dp2823
g2683
F0.9375889185793395
ssS'brnew0.3'
p2824
(dp2825
g2683
F0.9385246659676825
ssS'brnew0.4'
p2826
(dp2827
g2683
F0.9398374283131985
ssS'brnew0.5'
p2828
(dp2829
g2683
F0.9416965521791764
ssS'brnew0.6'
p2830
(dp2831
g2683
F0.944365190561277
ssS'brnew0.7'
p2832
(dp2833
g2683
F0.948336373832718
sssS'cprime0.1'
p2834
(dp2835
S'brnew0.8'
p2836
(dp2837
g2683
F0.9375889185793395
ssS'brnew0.9'
p2838
(dp2839
g2683
F0.944365190561277
ssS'brnew0.0'
p2840
(dp2841
g2683
F0.940290069963333
ssS'brnew0.1'
p2842
(dp2843
g2683
F0.9397622869479108
ssS'brnew0.2'
p2844
(dp2845
g2683
F0.9391764260929314
ssS'brnew0.3'
p2846
(dp2847
g2683
F0.938460976543204
ssS'brnew0.4'
p2848
(dp2849
g2683
F0.9376019385686146
ssS'brnew0.5'
p2850
(dp2851
g2683
F0.9368022225602494
ssS'brnew0.6'
p2852
(dp2853
g2683
F0.9361456065941915
ssS'brnew0.7'
p2854
(dp2855
g2683
F0.9360448334275934
sssS'cprime0.9'
p2856
(dp2857
S'brnew0.8'
p2858
(dp2859
g2683
F1.184100995354608
ssS'brnew0.9'
p2860
(dp2861
g2683
F1.4021415584685208
ssS'brnew0.0'
p2862
(dp2863
g2683
F0.9940272464946281
ssS'brnew0.1'
p2864
(dp2865
g2683
F0.9993472075064667
ssS'brnew0.2'
p2866
(dp2867
g2683
F1.0060101449749796
ssS'brnew0.3'
p2868
(dp2869
g2683
F1.0146036064872355
ssS'brnew0.4'
p2870
(dp2871
g2683
F1.0260212350846445
ssS'brnew0.5'
p2872
(dp2873
g2683
F1.0420262090569445
ssS'brnew0.6'
p2874
(dp2875
g2683
F1.0660288623335348
ssS'brnew0.7'
p2876
(dp2877
g2683
F1.1058723126128216
sssS'cprime0.8'
p2878
(dp2879
S'brnew0.8'
p2880
(dp2881
g2683
F1.135115073281843
ssS'brnew0.9'
p2882
(dp2883
g2683
F1.313827635856932
ssS'brnew0.0'
p2884
(dp2885
g2683
F0.983876905757078
ssS'brnew0.1'
p2886
(dp2887
g2683
F0.988138782526838
ssS'brnew0.2'
p2888
(dp2889
g2683
F0.9934104873171521
ssS'brnew0.3'
p2890
(dp2891
g2683
F1.0001086331282567
ssS'brnew0.4'
p2892
(dp2893
g2683
F1.0092391542670145
ssS'brnew0.5'
p2894
(dp2895
g2683
F1.0218559636899802
ssS'brnew0.6'
p2896
(dp2897
g2683
F1.0408474812852602
ssS'brnew0.7'
p2898
(dp2899
g2683
F1.0724510762370771
ssssS'1500'
p2900
(dp2901
S'cprime0.5'
p2902
(dp2903
S'brnew0.8'
p2904
(dp2905
S'weight'
p2906
F1.0165291824286369
ssS'brnew0.9'
p2907
(dp2908
g2906
F0.7915347733981009
ssS'brnew0.0'
p2909
(dp2910
g2906
F1.3660759088975205
ssS'brnew0.1'
p2911
(dp2912
g2906
F1.3525207050340855
ssS'brnew0.2'
p2913
(dp2914
g2906
F1.336009735655558
ssS'brnew0.3'
p2915
(dp2916
g2906
F1.3154383249707153
ssS'brnew0.4'
p2917
(dp2918
g2906
F1.289090406029884
ssS'brnew0.5'
p2919
(dp2920
g2906
F1.2541348923653777
ssS'brnew0.6'
p2921
(dp2922
g2906
F1.2055673261181166
ssS'brnew0.7'
p2923
(dp2924
g2906
F1.1336443513877192
sssS'cprime0.7'
p2925
(dp2926
S'brnew0.8'
p2927
(dp2928
g2906
F0.7982397034957623
ssS'brnew0.9'
p2929
(dp2930
g2906
F0.5733674007747932
ssS'brnew0.0'
p2931
(dp2932
g2906
F1.2582163433056135
ssS'brnew0.1'
p2933
(dp2934
g2906
F1.2363576995071788
ssS'brnew0.2'
p2935
(dp2936
g2906
F1.2102273589802452
ssS'brnew0.3'
p2937
(dp2938
g2906
F1.1784594440505176
ssS'brnew0.4'
p2939
(dp2940
g2906
F1.1390240774485025
ssS'brnew0.5'
p2941
(dp2942
g2906
F1.0888061399606423
ssS'brnew0.6'
p2943
(dp2944
g2906
F1.0227272769050855
ssS'brnew0.7'
p2945
(dp2946
g2906
F0.9318587932064994
sssS'cprime0.6'
p2947
(dp2948
S'brnew0.8'
p2949
(dp2950
g2906
F0.9001907407667711
ssS'brnew0.9'
p2951
(dp2952
g2906
F0.671535509236926
ssS'brnew0.0'
p2953
(dp2954
g2906
F1.3141465158390935
ssS'brnew0.1'
p2955
(dp2956
g2906
F1.2963489593301443
ssS'brnew0.2'
p2957
(dp2958
g2906
F1.2748461060178675
ssS'brnew0.3'
p2959
(dp2960
g2906
F1.2483573436712752
ssS'brnew0.4'
p2961
(dp2962
g2906
F1.2149312542075
ssS'brnew0.5'
p2963
(dp2964
g2906
F1.1714693578091602
ssS'brnew0.6'
p2965
(dp2966
g2906
F1.1127207844831841
ssS'brnew0.7'
p2967
(dp2968
g2906
F1.0290206357269636
sssS'cprime1.0'
p2969
(dp2970
S'brnew0.8'
p2971
(dp2972
g2906
F0.5670896880714373
ssS'brnew0.9'
p2973
(dp2974
g2906
F0.3683833043819777
ssS'brnew0.0'
p2975
(dp2976
g2906
F1.0830193879380634
ssS'brnew0.1'
p2977
(dp2978
g2906
F1.0521884198988676
ssS'brnew0.2'
p2979
(dp2980
g2906
F1.0165291824286369
ssS'brnew0.3'
p2981
(dp2982
g2906
F0.974806980306284
ssS'brnew0.4'
p2983
(dp2984
g2906
F0.9253044345146663
ssS'brnew0.5'
p2985
(dp2986
g2906
F0.8655150879496283
ssS'brnew0.6'
p2987
(dp2988
g2906
F0.7915347733981009
ssS'brnew0.7'
p2989
(dp2990
g2906
F0.6966093973940748
sssS'cprime0.4'
p2991
(dp2992
S'brnew0.8'
p2993
(dp2994
g2906
F1.1444660237476574
ssS'brnew0.9'
p2995
(dp2996
g2906
F0.9385304536168214
ssS'brnew0.0'
p2997
(dp2998
g2906
F1.4124997843910494
ssS'brnew0.1'
p2999
(dp3000
g2906
F1.4029753728501915
ssS'brnew0.2'
p3001
(dp3002
g2906
F1.3913393356207786
ssS'brnew0.3'
p3003
(dp3004
g2906
F1.376759337855043
ssS'brnew0.4'
p3005
(dp3006
g2906
F1.357905672546166
ssS'brnew0.5'
p3007
(dp3008
g2906
F1.3325031860225203
ssS'brnew0.6'
p3009
(dp3010
g2906
F1.2963489593301443
ssS'brnew0.7'
p3011
(dp3012
g2906
F1.2407480408403864
sssS'cprime0.3'
p3013
(dp3014
S'brnew0.8'
p3015
(dp3016
g2906
F1.2748461060178675
ssS'brnew0.9'
p3017
(dp3018
g2906
F1.1127207844831841
ssS'brnew0.0'
p3019
(dp3020
g2906
F1.4525418144401137
ssS'brnew0.1'
p3021
(dp3022
g2906
F1.446503771312459
ssS'brnew0.2'
p3023
(dp3024
g2906
F1.4391292260441322
ssS'brnew0.3'
p3025
(dp3026
g2906
F1.4298957952865905
ssS'brnew0.4'
p3027
(dp3028
g2906
F1.417951160327099
ssS'brnew0.5'
p3029
(dp3030
g2906
F1.401799234990295
ssS'brnew0.6'
p3031
(dp3032
g2906
F1.3785598876492635
ssS'brnew0.7'
p3033
(dp3034
g2906
F1.3418998426876427
sssS'cprime0.2'
p3035
(dp3036
S'brnew0.8'
p3037
(dp3038
g2906
F1.3913393356207786
ssS'brnew0.9'
p3039
(dp3040
g2906
F1.2963489593301443
ssS'brnew0.0'
p3041
(dp3042
g2906
F1.4851739256299368
ssS'brnew0.1'
p3043
(dp3044
g2906
F1.4820626908784729
ssS'brnew0.2'
p3045
(dp3046
g2906
F1.4782463068097191
ssS'brnew0.3'
p3047
(dp3048
g2906
F1.4734433389730097
ssS'brnew0.4'
p3049
(dp3050
g2906
F1.4671942850508524
ssS'brnew0.5'
p3051
(dp3052
g2906
F1.4587161127911368
ssS'brnew0.6'
p3053
(dp3054
g2906
F1.446503771312459
ssS'brnew0.7'
p3055
(dp3056
g2906
F1.4272090472792422
sssS'cprime0.1'
p3057
(dp3058
S'brnew0.8'
p3059
(dp3060
g2906
F1.4782463068097191
ssS'brnew0.9'
p3061
(dp3062
g2906
F1.446503771312459
ssS'brnew0.0'
p3063
(dp3064
g2906
F1.5097912302497971
ssS'brnew0.1'
p3065
(dp3066
g2906
F1.5085959550634052
ssS'brnew0.2'
p3067
(dp3068
g2906
F1.507153360601328
ssS'brnew0.3'
p3069
(dp3070
g2906
F1.5053807317746257
ssS'brnew0.4'
p3071
(dp3072
g2906
F1.50315314112229
ssS'brnew0.5'
p3073
(dp3074
g2906
F1.500248425454737
ssS'brnew0.6'
p3075
(dp3076
g2906
F1.496211529426429
ssS'brnew0.7'
p3077
(dp3078
g2906
F1.4899519499862592
sssS'cprime0.9'
p3079
(dp3080
S'brnew0.8'
p3081
(dp3082
g2906
F0.6335555363435554
ssS'brnew0.9'
p3083
(dp3084
g2906
F0.42484732733407055
ssS'brnew0.0'
p3085
(dp3086
g2906
F1.1411944920177235
ssS'brnew0.1'
p3087
(dp3088
g2906
F1.1127207844831841
ssS'brnew0.2'
p3089
(dp3090
g2906
F1.0794408725885742
ssS'brnew0.3'
p3091
(dp3092
g2906
F1.0400347739756632
ssS'brnew0.4'
p3093
(dp3094
g2906
F0.992631946402891
ssS'brnew0.5'
p3095
(dp3096
g2906
F0.9345132771130502
ssS'brnew0.6'
p3097
(dp3098
g2906
F0.8614113338778019
ssS'brnew0.7'
p3099
(dp3100
g2906
F0.7660157896681056
sssS'cprime0.8'
p3101
(dp3102
S'brnew0.8'
p3103
(dp3104
g2906
F0.7099795898099505
ssS'brnew0.9'
p3105
(dp3106
g2906
F0.49230834191502626
ssS'brnew0.0'
p3107
(dp3108
g2906
F1.2000303462541597
ssS'brnew0.1'
p3109
(dp3110
g2906
F1.1745641731960026
ssS'brnew0.2'
p3111
(dp3112
g2906
F1.1444660237476574
ssS'brnew0.3'
p3113
(dp3114
g2906
F1.1083586256131703
ssS'brnew0.4'
p3115
(dp3116
g2906
F1.064262591839894
ssS'brnew0.5'
p3117
(dp3118
g2906
F1.0092159856095333
ssS'brnew0.6'
p3119
(dp3120
g2906
F0.9385304536168214
ssS'brnew0.7'
p3121
(dp3122
g2906
F0.8441617411351192
ssssS'1000'
p3123
(dp3124
S'cprime1.0'
p3125
(dp3126
S'brnew0.8'
p3127
(dp3128
S'weight'
p3129
F0.7700175313475244
ssS'brnew0.9'
p3130
(dp3131
g3129
F0.599395000306937
ssS'brnew0.0'
p3132
(dp3133
g3129
F0.9718646862143118
ssS'brnew0.1'
p3134
(dp3135
g3129
F0.9640426098261884
ssS'brnew0.2'
p3136
(dp3137
g3129
F0.954752564248897
ssS'brnew0.3'
p3138
(dp3139
g3129
F0.9434631863071945
ssS'brnew0.4'
p3140
(dp3141
g3129
F0.929301190536245
ssS'brnew0.5'
p3142
(dp3143
g3129
F0.9106939792824004
ssS'brnew0.6'
p3144
(dp3145
g3129
F0.8845267055466118
ssS'brnew0.7'
p3146
(dp3147
g3129
F0.8438061379031228
sssS'cprime0.7'
p3148
(dp3149
S'brnew0.8'
p3150
(dp3151
g3129
F0.8870725372019689
ssS'brnew0.9'
p3152
(dp3153
g3129
F0.7741822821034783
ssS'brnew0.0'
p3154
(dp3155
g3129
F1.0137874273963245
ssS'brnew0.1'
p3156
(dp3157
g3129
F1.008756897284234
ssS'brnew0.2'
p3158
(dp3159
g3129
F1.00266794471811
ssS'brnew0.3'
p3160
(dp3161
g3129
F0.9951635173570316
ssS'brnew0.4'
p3162
(dp3163
g3129
F0.9856818441831173
ssS'brnew0.5'
p3164
(dp3165
g3129
F0.9733137789452259
ssS'brnew0.6'
p3166
(dp3167
g3129
F0.956388882020632
ssS'brnew0.7'
p3168
(dp3169
g3129
F0.9312325028951067
sssS'cprime0.6'
p3170
(dp3171
S'brnew0.8'
p3172
(dp3173
g3129
F0.9217143823226113
ssS'brnew0.9'
p3174
(dp3175
g3129
F0.8313568464856272
ssS'brnew0.0'
p3176
(dp3177
g3129
F1.0263544642812195
ssS'brnew0.1'
p3178
(dp3179
g3129
F1.0224077298760108
ssS'brnew0.2'
p3180
(dp3181
g3129
F1.0175726296282277
ssS'brnew0.3'
p3182
(dp3183
g3129
F1.011526427205501
ssS'brnew0.4'
p3184
(dp3185
g3129
F1.0037709498672183
ssS'brnew0.5'
p3186
(dp3187
g3129
F0.9934959630669942
ssS'brnew0.6'
p3188
(dp3189
g3129
F0.9792496270380299
ssS'brnew0.7'
p3190
(dp3191
g3129
F0.9580398688476477
sssS'cprime0.5'
p3192
(dp3193
S'brnew0.8'
p3194
(dp3195
g3129
F0.954752564248897
ssS'brnew0.9'
p3196
(dp3197
g3129
F0.8845267055466118
ssS'brnew0.0'
p3198
(dp3199
g3129
F1.037458212354901
ssS'brnew0.1'
p3200
(dp3201
g3129
F1.0346346041698835
ssS'brnew0.2'
p3202
(dp3203
g3129
F1.0311160660548604
ssS'brnew0.3'
p3204
(dp3205
g3129
F1.0266390532668441
ssS'brnew0.4'
p3206
(dp3207
g3129
F1.0207838495624848
ssS'brnew0.5'
p3208
(dp3209
g3129
F1.0128524067604494
ssS'brnew0.6'
p3210
(dp3211
g3129
F1.0015734910117713
ssS'brnew0.7'
p3212
(dp3213
g3129
F0.9843734521754975
sssS'cprime0.4'
p3214
(dp3215
S'brnew0.8'
p3216
(dp3217
g3129
F0.9870011182583115
ssS'brnew0.9'
p3218
(dp3219
g3129
F0.9331797139118582
ssS'brnew0.0'
p3220
(dp3221
g3129
F1.0464180353901624
ssS'brnew0.1'
p3222
(dp3223
g3129
F1.0447031090515457
ssS'brnew0.2'
p3224
(dp3225
g3129
F1.0425058703286325
ssS'brnew0.3'
p3226
(dp3227
g3129
F1.0396317449435732
ssS'brnew0.4'
p3228
(dp3229
g3129
F1.0357633488759466
ssS'brnew0.5'
p3230
(dp3231
g3129
F1.030360023225178
ssS'brnew0.6'
p3232
(dp3233
g3129
F1.0224077298760108
ssS'brnew0.7'
p3234
(dp3235
g3129
F1.0097729920475076
sssS'cprime0.3'
p3236
(dp3237
S'brnew0.8'
p3238
(dp3239
g3129
F1.0175726296282277
ssS'brnew0.9'
p3240
(dp3241
g3129
F0.9792496270380299
ssS'brnew0.0'
p3242
(dp3243
g3129
F1.052355517839945
ssS'brnew0.1'
p3244
(dp3245
g3129
F1.0516391148234885
ssS'brnew0.2'
p3246
(dp3247
g3129
F1.0506596176775638
ssS'brnew0.3'
p3248
(dp3249
g3129
F1.0493002309267496
ssS'brnew0.4'
p3250
(dp3251
g3129
F1.0473592429247562
ssS'brnew0.5'
p3252
(dp3253
g3129
F1.0444852000152212
ssS'brnew0.6'
p3254
(dp3255
g3129
F1.0399932877144316
ssS'brnew0.7'
p3256
(dp3257
g3129
F1.032379662514433
sssS'cprime0.2'
p3258
(dp3259
S'brnew0.8'
p3260
(dp3261
g3129
F1.0425058703286325
ssS'brnew0.9'
p3262
(dp3263
g3129
F1.0224077298760108
ssS'brnew0.0'
p3264
(dp3265
g3129
F1.05381424040149
ssS'brnew0.1'
p3266
(dp3267
g3129
F1.0539763560013906
ssS'brnew0.2'
p3268
(dp3269
g3129
F1.054043802207866
ssS'brnew0.3'
p3270
(dp3271
g3129
F1.0539670872018267
ssS'brnew0.4'
p3272
(dp3273
g3129
F1.053667579151683
ssS'brnew0.5'
p3274
(dp3275
g3129
F1.0529920605405276
ssS'brnew0.6'
p3276
(dp3277
g3129
F1.0516391148234885
ssS'brnew0.7'
p3278
(dp3279
g3129
F1.0488801793436613
sssS'cprime0.1'
p3280
(dp3281
S'brnew0.8'
p3282
(dp3283
g3129
F1.054043802207866
ssS'brnew0.9'
p3284
(dp3285
g3129
F1.0516391148234885
ssS'brnew0.0'
p3286
(dp3287
g3129
F1.0451788710977925
ssS'brnew0.1'
p3288
(dp3289
g3129
F1.046124762936603
ssS'brnew0.2'
p3290
(dp3291
g3129
F1.0471351835079026
ssS'brnew0.3'
p3292
(dp3293
g3129
F1.0482302261742797
ssS'brnew0.4'
p3294
(dp3295
g3129
F1.0494186703896453
ssS'brnew0.5'
p3296
(dp3297
g3129
F1.0507009667633715
ssS'brnew0.6'
p3298
(dp3299
g3129
F1.0520445236454519
ssS'brnew0.7'
p3300
(dp3301
g3129
F1.0533195122880088
sssS'cprime0.9'
p3302
(dp3303
S'brnew0.8'
p3304
(dp3305
g3129
F0.8109181185490649
ssS'brnew0.9'
p3306
(dp3307
g3129
F0.6562122389616317
ssS'brnew0.0'
p3308
(dp3309
g3129
F0.9862075759553319
ssS'brnew0.1'
p3310
(dp3311
g3129
F0.9792496270380299
ssS'brnew0.2'
p3312
(dp3313
g3129
F0.9709656107420825
ssS'brnew0.3'
p3314
(dp3315
g3129
F0.9609080916725136
ssS'brnew0.4'
p3316
(dp3317
g3129
F0.9483493000216546
ssS'brnew0.5'
p3318
(dp3319
g3129
F0.9320092450575109
ssS'brnew0.6'
p3320
(dp3321
g3129
F0.9093424696532217
ssS'brnew0.7'
p3322
(dp3323
g3129
F0.8744734836792355
sssS'cprime0.8'
p3324
(dp3325
S'brnew0.8'
p3326
(dp3327
g3129
F0.8501289955873579
ssS'brnew0.9'
p3328
(dp3329
g3129
F0.7150625645925504
ssS'brnew0.0'
p3330
(dp3331
g3129
F1.0002731668776734
ssS'brnew0.1'
p3332
(dp3333
g3129
F0.9942346847142188
ssS'brnew0.2'
p3334
(dp3335
g3129
F0.9870011182583115
ssS'brnew0.3'
p3336
(dp3337
g3129
F0.9781725150723456
ssS'brnew0.4'
p3338
(dp3339
g3129
F0.9671267502202054
ssS'brnew0.5'
p3340
(dp3341
g3129
F0.9528080496946475
ssS'brnew0.6'
p3342
(dp3343
g3129
F0.9331797139118582
ssS'brnew0.7'
p3344
(dp3345
g3129
F0.9035457811087352
ssssS'500'
p3346
(dp3347
S'cprime1.0'
p3348
(dp3349
S'brnew0.8'
p3350
(dp3351
S'weight'
p3352
F1.1967650041653257
ssS'brnew0.9'
p3353
(dp3354
g3352
F1.41358750602955
ssS'brnew0.0'
p3355
(dp3356
g3352
F1.0056722073444457
ssS'brnew0.1'
p3357
(dp3358
g3352
F1.0103937435242656
ssS'brnew0.2'
p3359
(dp3360
g3352
F1.0164071056207817
ssS'brnew0.3'
p3361
(dp3362
g3352
F1.024313648747672
ssS'brnew0.4'
p3363
(dp3364
g3352
F1.0351158073204711
ssS'brnew0.5'
p3365
(dp3366
g3352
F1.050648890052715
ssS'brnew0.6'
p3367
(dp3368
g3352
F1.0745917828723324
ssS'brnew0.7'
p3369
(dp3370
g3352
F1.1153842827156082
sssS'cprime0.7'
p3371
(dp3372
S'brnew0.8'
p3373
(dp3374
g3352
F1.0721714752275637
ssS'brnew0.9'
p3375
(dp3376
g3352
F1.1919592477392595
ssS'brnew0.0'
p3377
(dp3378
g3352
F0.9855260061798262
ssS'brnew0.1'
p3379
(dp3380
g3352
F0.987514348849758
ssS'brnew0.2'
p3381
(dp3382
g3352
F0.9900707121121359
ssS'brnew0.3'
p3383
(dp3384
g3352
F0.993449409178455
ssS'brnew0.4'
p3385
(dp3386
g3352
F0.9981026448150794
ssS'brnew0.5'
p3387
(dp3388
g3352
F1.0048310247590815
ssS'brnew0.6'
p3389
(dp3390
g3352
F1.015316731757848
ssS'brnew0.7'
p3391
(dp3392
g3352
F1.033586333098182
sssS'cprime0.6'
p3393
(dp3394
S'brnew0.8'
p3395
(dp3396
g3352
F1.0412778876380389
ssS'brnew0.9'
p3397
(dp3398
g3352
F1.128513758808499
ssS'brnew0.0'
p3399
(dp3400
g3352
F0.9810259842114367
ssS'brnew0.1'
p3401
(dp3402
g3352
F0.9823681793043509
ssS'brnew0.2'
p3403
(dp3404
g3352
F0.9840997916473281
ssS'brnew0.3'
p3405
(dp3406
g3352
F0.9864029882836106
ssS'brnew0.4'
p3407
(dp3408
g3352
F0.9895971704311726
ssS'brnew0.5'
p3409
(dp3410
g3352
F0.9942404380616834
ssS'brnew0.6'
p3411
(dp3412
g3352
F1.0015018122609085
ssS'brnew0.7'
p3413
(dp3414
g3352
F1.014225931719925
sssS'cprime0.5'
p3415
(dp3416
S'brnew0.8'
p3417
(dp3418
g3352
F1.0164071056207817
ssS'brnew0.9'
p3419
(dp3420
g3352
F1.0745917828723324
ssS'brnew0.0'
p3421
(dp3422
g3352
F0.9774618915946167
ssS'brnew0.1'
p3423
(dp3424
g3352
F0.9783545007063545
ssS'brnew0.2'
p3425
(dp3426
g3352
F0.9794697722451847
ssS'brnew0.3'
p3427
(dp3428
g3352
F0.9809303653374025
ssS'brnew0.4'
p3429
(dp3430
g3352
F0.9829378551275078
ssS'brnew0.5'
p3431
(dp3432
g3352
F0.9858887353775482
ssS'brnew0.6'
p3433
(dp3434
g3352
F0.9905460618805481
ssS'brnew0.7'
p3435
(dp3436
g3352
F0.9987721164850608
sssS'cprime0.4'
p3437
(dp3438
S'brnew0.8'
p3439
(dp3440
g3352
F0.9974245296241062
ssS'brnew0.9'
p3441
(dp3442
g3352
F1.0320640933644498
ssS'brnew0.0'
p3443
(dp3444
g3352
F0.9742664412246387
ssS'brnew0.1'
p3445
(dp3446
g3352
F0.974979055249925
ssS'brnew0.2'
p3447
(dp3448
g3352
F0.9757926001816932
ssS'brnew0.3'
p3449
(dp3450
g3352
F0.9767644847544619
ssS'brnew0.4'
p3451
(dp3452
g3352
F0.9780000350020794
ssS'brnew0.5'
p3453
(dp3454
g3352
F0.9797136227566241
ssS'brnew0.6'
p3455
(dp3456
g3352
F0.9823681793043509
ssS'brnew0.7'
p3457
(dp3458
g3352
F0.9871033978928121
sssS'cprime0.3'
p3459
(dp3460
S'brnew0.8'
p3461
(dp3462
g3352
F0.9840997916473281
ssS'brnew0.9'
p3463
(dp3464
g3352
F1.0015018122609085
ssS'brnew0.0'
p3465
(dp3466
g3352
F0.9703158703396996
ssS'brnew0.1'
p3467
(dp3468
g3352
F0.9710636151940448
ssS'brnew0.2'
p3469
(dp3470
g3352
F0.9718825132018695
ssS'brnew0.3'
p3471
(dp3472
g3352
F0.9727992728328333
ssS'brnew0.4'
p3473
(dp3474
g3352
F0.9738347748463849
ssS'brnew0.5'
p3475
(dp3476
g3352
F0.9750649646644077
ssS'brnew0.6'
p3477
(dp3478
g3352
F0.9766421511153066
ssS'brnew0.7'
p3479
(dp3480
g3352
F0.9790666064244647
sssS'cprime0.2'
p3481
(dp3482
S'brnew0.8'
p3483
(dp3484
g3352
F0.9757926001816932
ssS'brnew0.9'
p3485
(dp3486
g3352
F0.9823681793043509
ssS'brnew0.0'
p3487
(dp3488
g3352
F0.9640895874488318
ssS'brnew0.1'
p3489
(dp3490
g3352
F0.9649559579293432
ssS'brnew0.2'
p3491
(dp3492
g3352
F0.9659048177358034
ssS'brnew0.3'
p3493
(dp3494
g3352
F0.966940440009278
ssS'brnew0.4'
p3495
(dp3496
g3352
F0.9681143542139395
ssS'brnew0.5'
p3497
(dp3498
g3352
F0.969466579620282
ssS'brnew0.6'
p3499
(dp3500
g3352
F0.9710636151940448
ssS'brnew0.7'
p3501
(dp3502
g3352
F0.9730422679400851
sssS'cprime0.1'
p3503
(dp3504
S'brnew0.8'
p3505
(dp3506
g3352
F0.9659048177358034
ssS'brnew0.9'
p3507
(dp3508
g3352
F0.9710636151940448
ssS'brnew0.0'
p3509
(dp3510
g3352
F0.945578507884172
ssS'brnew0.1'
p3511
(dp3512
g3352
F0.9476146362655516
ssS'brnew0.2'
p3513
(dp3514
g3352
F0.9497790727916402
ssS'brnew0.3'
p3515
(dp3516
g3352
F0.952069254165192
ssS'brnew0.4'
p3517
(dp3518
g3352
F0.9544805868975635
ssS'brnew0.5'
p3519
(dp3520
g3352
F0.9570153608731549
ssS'brnew0.6'
p3521
(dp3522
g3352
F0.9596549515434708
ssS'brnew0.7'
p3523
(dp3524
g3352
F0.9625013583752258
sssS'cprime0.9'
p3525
(dp3526
S'brnew0.8'
p3527
(dp3528
g3352
F1.1506298197361822
ssS'brnew0.9'
p3529
(dp3530
g3352
F1.3370854711373668
ssS'brnew0.0'
p3531
(dp3532
g3352
F0.9978369167038116
ssS'brnew0.1'
p3533
(dp3534
g3352
F1.0015018122609085
ssS'brnew0.2'
p3535
(dp3536
g3352
F1.0062054740852455
ssS'brnew0.3'
p3537
(dp3538
g3352
F1.0123676969151192
ssS'brnew0.4'
p3539
(dp3540
g3352
F1.0208111930782602
ssS'brnew0.5'
p3541
(dp3542
g3352
F1.0329788379925129
ssS'brnew0.6'
p3543
(dp3544
g3352
F1.0518320585076781
ssS'brnew0.7'
p3545
(dp3546
g3352
F1.084314312660592
sssS'cprime0.8'
p3547
(dp3548
S'brnew0.8'
p3549
(dp3550
g3352
F1.1088231291688389
ssS'brnew0.9'
p3551
(dp3552
g3352
F1.2623781761772366
ssS'brnew0.0'
p3553
(dp3554
g3352
F0.9911215218112546
ssS'brnew0.1'
p3555
(dp3556
g3352
F0.9938890518345235
ssS'brnew0.2'
p3557
(dp3558
g3352
F0.9974245296241062
ssS'brnew0.3'
p3559
(dp3560
g3352
F1.0020988337794927
ssS'brnew0.4'
p3561
(dp3562
g3352
F1.0084928939364954
ssS'brnew0.5'
p3563
(dp3564
g3352
F1.0177222061233921
ssS'brnew0.6'
p3565
(dp3566
g3352
F1.0320640933644498
ssS'brnew0.7'
p3567
(dp3568
g3352
F1.0569699951355815
ssssS'2500'
p3569
(dp3570
S'cprime0.5'
p3571
(dp3572
S'brnew0.8'
p3573
(dp3574
S'weight'
p3575
F0.8679149746245521
ssS'brnew0.9'
p3576
(dp3577
g3575
F0.5810661679726079
ssS'brnew0.0'
p3578
(dp3579
g3575
F1.2916357748101748
ssS'brnew0.1'
p3580
(dp3581
g3575
F1.2770875121939675
ssS'brnew0.2'
p3582
(dp3583
g3575
F1.259089182830494
ssS'brnew0.3'
p3584
(dp3585
g3575
F1.2362760322529573
ssS'brnew0.4'
p3586
(dp3587
g3575
F1.2064600738339264
ssS'brnew0.5'
p3588
(dp3589
g3575
F1.1659248914912284
ssS'brnew0.6'
p3590
(dp3591
g3575
F1.107873062659237
ssS'brnew0.7'
p3592
(dp3593
g3575
F1.0186800266912355
sssS'cprime0.7'
p3594
(dp3595
S'brnew0.8'
p3596
(dp3597
g3575
F0.5891918363535646
ssS'brnew0.9'
p3598
(dp3599
g3575
F0.34442240635481436
ssS'brnew0.0'
p3600
(dp3601
g3575
F1.1707133647372365
ssS'brnew0.1'
p3602
(dp3603
g3575
F1.144900411451209
ssS'brnew0.2'
p3604
(dp3605
g3575
F1.1135262983228662
ssS'brnew0.3'
p3606
(dp3607
g3575
F1.0746685650082235
ssS'brnew0.4'
p3608
(dp3609
g3575
F1.0254669475204294
ssS'brnew0.5'
p3610
(dp3611
g3575
F0.9615401593427215
ssS'brnew0.6'
p3612
(dp3613
g3575
F0.8759870272342889
ssS'brnew0.7'
p3614
(dp3615
g3575
F0.7577308547206645
sssS'cprime0.6'
p3616
(dp3617
S'brnew0.8'
p3618
(dp3619
g3575
F0.7169065367417848
ssS'brnew0.9'
p3620
(dp3621
g3575
F0.44357038012190175
ssS'brnew0.0'
p3622
(dp3623
g3575
F1.2348289853472267
ssS'brnew0.1'
p3624
(dp3625
g3575
F1.2147375325039498
ssS'brnew0.2'
p3626
(dp3627
g3575
F1.190074483807832
ssS'brnew0.3'
p3628
(dp3629
g3575
F1.1591213536772564
ssS'brnew0.4'
p3630
(dp3631
g3575
F1.1192143119541857
ssS'brnew0.5'
p3632
(dp3633
g3575
F1.0660218452474377
ssS'brnew0.6'
p3634
(dp3635
g3575
F0.9921372167805826
ssS'brnew0.7'
p3636
(dp3637
g3575
F0.8841770317307215
sssS'cprime1.0'
p3638
(dp3639
S'brnew0.8'
p3640
(dp3641
g3575
F0.338533680586495
ssS'brnew0.9'
p3642
(dp3643
g3575
F0.18051467379249195
ssS'brnew0.0'
p3644
(dp3645
g3575
F0.9541018227349451
ssS'brnew0.1'
p3646
(dp3647
g3575
F0.9142704727849158
ssS'brnew0.2'
p3648
(dp3649
g3575
F0.8679149746245521
ssS'brnew0.3'
p3650
(dp3651
g3575
F0.8135368951097719
ssS'brnew0.4'
p3652
(dp3653
g3575
F0.7492526963993505
ssS'brnew0.5'
p3654
(dp3655
g3575
F0.6727155892343566
ssS'brnew0.6'
p3656
(dp3657
g3575
F0.5810661679726079
ssS'brnew0.7'
p3658
(dp3659
g3575
F0.47093097500573716
sssS'cprime0.4'
p3660
(dp3661
S'brnew0.8'
p3662
(dp3663
g3575
F1.0323133260568846
ssS'brnew0.9'
p3664
(dp3665
g3575
F0.7663724433740547
ssS'brnew0.0'
p3666
(dp3667
g3575
F1.3395323171871376
ssS'brnew0.1'
p3668
(dp3669
g3575
F1.3299986130405075
ssS'brnew0.2'
p3670
(dp3671
g3575
F1.318124199311728
ssS'brnew0.3'
p3672
(dp3673
g3575
F1.302943732059132
ssS'brnew0.4'
p3674
(dp3675
g3575
F1.2828911147966695
ssS'brnew0.5'
p3676
(dp3677
g3575
F1.2552307096302597
ssS'brnew0.6'
p3678
(dp3679
g3575
F1.2147375325039498
ssS'brnew0.7'
p3680
(dp3681
g3575
F1.1501172762435652
sssS'cprime0.3'
p3682
(dp3683
S'brnew0.8'
p3684
(dp3685
g3575
F1.190074483807832
ssS'brnew0.9'
p3686
(dp3687
g3575
F0.9921372167805826
ssS'brnew0.0'
p3688
(dp3689
g3575
F1.3773195792405513
ssS'brnew0.1'
p3690
(dp3691
g3575
F1.3718749872476386
ssS'brnew0.2'
p3692
(dp3693
g3575
F1.3651094882785217
ssS'brnew0.3'
p3694
(dp3695
g3575
F1.3564389388037945
ssS'brnew0.4'
p3696
(dp3697
g3575
F1.3449050701876049
ssS'brnew0.5'
p3698
(dp3699
g3575
F1.3288093806251524
ssS'brnew0.6'
p3700
(dp3701
g3575
F1.3048358315231023
ssS'brnew0.7'
p3702
(dp3703
g3575
F1.2655434835228103
sssS'cprime0.2'
p3704
(dp3705
S'brnew0.8'
p3706
(dp3707
g3575
F1.318124199311728
ssS'brnew0.9'
p3708
(dp3709
g3575
F1.2147375325039498
ssS'brnew0.0'
p3710
(dp3711
g3575
F1.4074645470391849
ssS'brnew0.1'
p3712
(dp3713
g3575
F1.404221639508272
ssS'brnew0.2'
p3714
(dp3715
g3575
F1.400462950108972
ssS'brnew0.3'
p3716
(dp3717
g3575
F1.3959673870489546
ssS'brnew0.4'
p3718
(dp3719
g3575
F1.3903354869695252
ssS'brnew0.5'
p3720
(dp3721
g3575
F1.3828189456229942
ssS'brnew0.6'
p3722
(dp3723
g3575
F1.3718749872476386
ssS'brnew0.7'
p3724
(dp3725
g3575
F1.3538739841134626
sssS'cprime0.1'
p3726
(dp3727
S'brnew0.8'
p3728
(dp3729
g3575
F1.400462950108972
ssS'brnew0.9'
p3730
(dp3731
g3575
F1.3718749872476386
ssS'brnew0.0'
p3732
(dp3733
g3575
F1.444389942567955
ssS'brnew0.1'
p3734
(dp3735
g3575
F1.4421936565227131
ssS'brnew0.2'
p3736
(dp3737
g3575
F1.4395493129872288
ssS'brnew0.3'
p3738
(dp3739
g3575
F1.4363401361297408
ssS'brnew0.4'
p3740
(dp3741
g3575
F1.4324022507279128
ssS'brnew0.5'
p3742
(dp3743
g3575
F1.4274964400474761
ssS'brnew0.6'
p3744
(dp3745
g3575
F1.4212404975598683
ssS'brnew0.7'
p3746
(dp3747
g3575
F1.4129097473365886
sssS'cprime0.9'
p3748
(dp3749
S'brnew0.8'
p3750
(dp3751
g3575
F0.4036648072341146
ssS'brnew0.9'
p3752
(dp3753
g3575
F0.21994870438022504
ssS'brnew0.0'
p3754
(dp3755
g3575
F1.0281985681244672
ssS'brnew0.1'
p3756
(dp3757
g3575
F0.9921372167805826
ssS'brnew0.2'
p3758
(dp3759
g3575
F0.9494943299299059
ssS'brnew0.3'
p3760
(dp3761
g3575
F0.8984942367502181
ssS'brnew0.4'
p3762
(dp3763
g3575
F0.8367701269050976
ssS'brnew0.5'
p3764
(dp3765
g3575
F0.7611673635082227
ssS'brnew0.6'
p3766
(dp3767
g3575
F0.6675278247676635
ssS'brnew0.7'
p3768
(dp3769
g3575
F0.5505249097563302
sssS'cprime0.8'
p3770
(dp3771
S'brnew0.8'
p3772
(dp3773
g3575
F0.4858355217744515
ssS'brnew0.9'
p3774
(dp3775
g3575
F0.27266377384911766
ssS'brnew0.0'
p3776
(dp3777
g3575
F1.1011338802351933
ssS'brnew0.1'
p3778
(dp3779
g3575
F1.069853884296035
ssS'brnew0.2'
p3780
(dp3781
g3575
F1.0323133260568846
ssS'brnew0.3'
p3782
(dp3783
g3575
F0.986574180753045
ssS'brnew0.4'
p3784
(dp3785
g3575
F0.9299019503273858
ssS'brnew0.5'
p3786
(dp3787
g3575
F0.8583809872882225
ssS'brnew0.6'
p3788
(dp3789
g3575
F0.7663724433740547
ssS'brnew0.7'
p3790
(dp3791
g3575
F0.6458470251411895
ssss.